
MKB0908_Demo.elf:     file format elf32-littlearm

Sections:
Idx Name          Size      VMA       LMA       File off  Algn
  0 .isr_vector   000001f8  08000000  08000000  00010000  2**0
                  CONTENTS, ALLOC, LOAD, READONLY, DATA
  1 .text         00005444  08000200  08000200  00010200  2**4
                  CONTENTS, ALLOC, LOAD, READONLY, CODE
  2 .rodata       0000040c  08005644  08005644  00015644  2**2
                  CONTENTS, ALLOC, LOAD, READONLY, DATA
  3 .ARM.extab    00000000  08005a50  08005a50  000200b8  2**0
                  CONTENTS
  4 .ARM          00000008  08005a50  08005a50  00015a50  2**2
                  CONTENTS, ALLOC, LOAD, READONLY, DATA
  5 .preinit_array 00000000  08005a58  08005a58  000200b8  2**0
                  CONTENTS, ALLOC, LOAD, DATA
  6 .init_array   00000004  08005a58  08005a58  00015a58  2**2
                  CONTENTS, ALLOC, LOAD, DATA
  7 .fini_array   00000004  08005a5c  08005a5c  00015a5c  2**2
                  CONTENTS, ALLOC, LOAD, DATA
  8 .data         000000b8  20000000  08005a60  00020000  2**2
                  CONTENTS, ALLOC, LOAD, DATA
  9 .bss          00003288  200000b8  08005b18  000200b8  2**2
                  ALLOC
 10 ._user_heap_stack 00000600  20003340  08005b18  00023340  2**0
                  ALLOC
 11 .ARM.attributes 0000002e  00000000  00000000  000200b8  2**0
                  CONTENTS, READONLY
 12 .comment      00000043  00000000  00000000  000200e6  2**0
                  CONTENTS, READONLY
 13 .debug_frame  00000bb4  00000000  00000000  0002012c  2**2
                  CONTENTS, READONLY, DEBUGGING, OCTETS

Disassembly of section .text:

08000200 <__do_global_dtors_aux>:
 8000200:	b510      	push	{r4, lr}
 8000202:	4c05      	ldr	r4, [pc, #20]	; (8000218 <__do_global_dtors_aux+0x18>)
 8000204:	7823      	ldrb	r3, [r4, #0]
 8000206:	b933      	cbnz	r3, 8000216 <__do_global_dtors_aux+0x16>
 8000208:	4b04      	ldr	r3, [pc, #16]	; (800021c <__do_global_dtors_aux+0x1c>)
 800020a:	b113      	cbz	r3, 8000212 <__do_global_dtors_aux+0x12>
 800020c:	4804      	ldr	r0, [pc, #16]	; (8000220 <__do_global_dtors_aux+0x20>)
 800020e:	f3af 8000 	nop.w
 8000212:	2301      	movs	r3, #1
 8000214:	7023      	strb	r3, [r4, #0]
 8000216:	bd10      	pop	{r4, pc}
 8000218:	200000b8 	.word	0x200000b8
 800021c:	00000000 	.word	0x00000000
 8000220:	0800562c 	.word	0x0800562c

08000224 <frame_dummy>:
 8000224:	b508      	push	{r3, lr}
 8000226:	4b03      	ldr	r3, [pc, #12]	; (8000234 <frame_dummy+0x10>)
 8000228:	b11b      	cbz	r3, 8000232 <frame_dummy+0xe>
 800022a:	4903      	ldr	r1, [pc, #12]	; (8000238 <frame_dummy+0x14>)
 800022c:	4803      	ldr	r0, [pc, #12]	; (800023c <frame_dummy+0x18>)
 800022e:	f3af 8000 	nop.w
 8000232:	bd08      	pop	{r3, pc}
 8000234:	00000000 	.word	0x00000000
 8000238:	200000bc 	.word	0x200000bc
 800023c:	0800562c 	.word	0x0800562c

08000240 <strlen>:
 8000240:	4603      	mov	r3, r0
 8000242:	f813 2b01 	ldrb.w	r2, [r3], #1
 8000246:	2a00      	cmp	r2, #0
 8000248:	d1fb      	bne.n	8000242 <strlen+0x2>
 800024a:	1a18      	subs	r0, r3, r0
 800024c:	3801      	subs	r0, #1
 800024e:	4770      	bx	lr

08000250 <memchr>:
 8000250:	f001 01ff 	and.w	r1, r1, #255	; 0xff
 8000254:	2a10      	cmp	r2, #16
 8000256:	db2b      	blt.n	80002b0 <memchr+0x60>
 8000258:	f010 0f07 	tst.w	r0, #7
 800025c:	d008      	beq.n	8000270 <memchr+0x20>
 800025e:	f810 3b01 	ldrb.w	r3, [r0], #1
 8000262:	3a01      	subs	r2, #1
 8000264:	428b      	cmp	r3, r1
 8000266:	d02d      	beq.n	80002c4 <memchr+0x74>
 8000268:	f010 0f07 	tst.w	r0, #7
 800026c:	b342      	cbz	r2, 80002c0 <memchr+0x70>
 800026e:	d1f6      	bne.n	800025e <memchr+0xe>
 8000270:	b4f0      	push	{r4, r5, r6, r7}
 8000272:	ea41 2101 	orr.w	r1, r1, r1, lsl #8
 8000276:	ea41 4101 	orr.w	r1, r1, r1, lsl #16
 800027a:	f022 0407 	bic.w	r4, r2, #7
 800027e:	f07f 0700 	mvns.w	r7, #0
 8000282:	2300      	movs	r3, #0
 8000284:	e8f0 5602 	ldrd	r5, r6, [r0], #8
 8000288:	3c08      	subs	r4, #8
 800028a:	ea85 0501 	eor.w	r5, r5, r1
 800028e:	ea86 0601 	eor.w	r6, r6, r1
 8000292:	fa85 f547 	uadd8	r5, r5, r7
 8000296:	faa3 f587 	sel	r5, r3, r7
 800029a:	fa86 f647 	uadd8	r6, r6, r7
 800029e:	faa5 f687 	sel	r6, r5, r7
 80002a2:	b98e      	cbnz	r6, 80002c8 <memchr+0x78>
 80002a4:	d1ee      	bne.n	8000284 <memchr+0x34>
 80002a6:	bcf0      	pop	{r4, r5, r6, r7}
 80002a8:	f001 01ff 	and.w	r1, r1, #255	; 0xff
 80002ac:	f002 0207 	and.w	r2, r2, #7
 80002b0:	b132      	cbz	r2, 80002c0 <memchr+0x70>
 80002b2:	f810 3b01 	ldrb.w	r3, [r0], #1
 80002b6:	3a01      	subs	r2, #1
 80002b8:	ea83 0301 	eor.w	r3, r3, r1
 80002bc:	b113      	cbz	r3, 80002c4 <memchr+0x74>
 80002be:	d1f8      	bne.n	80002b2 <memchr+0x62>
 80002c0:	2000      	movs	r0, #0
 80002c2:	4770      	bx	lr
 80002c4:	3801      	subs	r0, #1
 80002c6:	4770      	bx	lr
 80002c8:	2d00      	cmp	r5, #0
 80002ca:	bf06      	itte	eq
 80002cc:	4635      	moveq	r5, r6
 80002ce:	3803      	subeq	r0, #3
 80002d0:	3807      	subne	r0, #7
 80002d2:	f015 0f01 	tst.w	r5, #1
 80002d6:	d107      	bne.n	80002e8 <memchr+0x98>
 80002d8:	3001      	adds	r0, #1
 80002da:	f415 7f80 	tst.w	r5, #256	; 0x100
 80002de:	bf02      	ittt	eq
 80002e0:	3001      	addeq	r0, #1
 80002e2:	f415 3fc0 	tsteq.w	r5, #98304	; 0x18000
 80002e6:	3001      	addeq	r0, #1
 80002e8:	bcf0      	pop	{r4, r5, r6, r7}
 80002ea:	3801      	subs	r0, #1
 80002ec:	4770      	bx	lr
 80002ee:	bf00      	nop

080002f0 <__aeabi_uldivmod>:
 80002f0:	b953      	cbnz	r3, 8000308 <__aeabi_uldivmod+0x18>
 80002f2:	b94a      	cbnz	r2, 8000308 <__aeabi_uldivmod+0x18>
 80002f4:	2900      	cmp	r1, #0
 80002f6:	bf08      	it	eq
 80002f8:	2800      	cmpeq	r0, #0
 80002fa:	bf1c      	itt	ne
 80002fc:	f04f 31ff 	movne.w	r1, #4294967295
 8000300:	f04f 30ff 	movne.w	r0, #4294967295
 8000304:	f000 b970 	b.w	80005e8 <__aeabi_idiv0>
 8000308:	f1ad 0c08 	sub.w	ip, sp, #8
 800030c:	e96d ce04 	strd	ip, lr, [sp, #-16]!
 8000310:	f000 f806 	bl	8000320 <__udivmoddi4>
 8000314:	f8dd e004 	ldr.w	lr, [sp, #4]
 8000318:	e9dd 2302 	ldrd	r2, r3, [sp, #8]
 800031c:	b004      	add	sp, #16
 800031e:	4770      	bx	lr

08000320 <__udivmoddi4>:
 8000320:	e92d 47f0 	stmdb	sp!, {r4, r5, r6, r7, r8, r9, sl, lr}
 8000324:	9e08      	ldr	r6, [sp, #32]
 8000326:	460d      	mov	r5, r1
 8000328:	4604      	mov	r4, r0
 800032a:	460f      	mov	r7, r1
 800032c:	2b00      	cmp	r3, #0
 800032e:	d14a      	bne.n	80003c6 <__udivmoddi4+0xa6>
 8000330:	428a      	cmp	r2, r1
 8000332:	4694      	mov	ip, r2
 8000334:	d965      	bls.n	8000402 <__udivmoddi4+0xe2>
 8000336:	fab2 f382 	clz	r3, r2
 800033a:	b143      	cbz	r3, 800034e <__udivmoddi4+0x2e>
 800033c:	fa02 fc03 	lsl.w	ip, r2, r3
 8000340:	f1c3 0220 	rsb	r2, r3, #32
 8000344:	409f      	lsls	r7, r3
 8000346:	fa20 f202 	lsr.w	r2, r0, r2
 800034a:	4317      	orrs	r7, r2
 800034c:	409c      	lsls	r4, r3
 800034e:	ea4f 4e1c 	mov.w	lr, ip, lsr #16
 8000352:	fa1f f58c 	uxth.w	r5, ip
 8000356:	fbb7 f1fe 	udiv	r1, r7, lr
 800035a:	0c22      	lsrs	r2, r4, #16
 800035c:	fb0e 7711 	mls	r7, lr, r1, r7
 8000360:	ea42 4207 	orr.w	r2, r2, r7, lsl #16
 8000364:	fb01 f005 	mul.w	r0, r1, r5
 8000368:	4290      	cmp	r0, r2
 800036a:	d90a      	bls.n	8000382 <__udivmoddi4+0x62>
 800036c:	eb1c 0202 	adds.w	r2, ip, r2
 8000370:	f101 37ff 	add.w	r7, r1, #4294967295
 8000374:	f080 811c 	bcs.w	80005b0 <__udivmoddi4+0x290>
 8000378:	4290      	cmp	r0, r2
 800037a:	f240 8119 	bls.w	80005b0 <__udivmoddi4+0x290>
 800037e:	3902      	subs	r1, #2
 8000380:	4462      	add	r2, ip
 8000382:	1a12      	subs	r2, r2, r0
 8000384:	b2a4      	uxth	r4, r4
 8000386:	fbb2 f0fe 	udiv	r0, r2, lr
 800038a:	fb0e 2210 	mls	r2, lr, r0, r2
 800038e:	ea44 4402 	orr.w	r4, r4, r2, lsl #16
 8000392:	fb00 f505 	mul.w	r5, r0, r5
 8000396:	42a5      	cmp	r5, r4
 8000398:	d90a      	bls.n	80003b0 <__udivmoddi4+0x90>
 800039a:	eb1c 0404 	adds.w	r4, ip, r4
 800039e:	f100 32ff 	add.w	r2, r0, #4294967295
 80003a2:	f080 8107 	bcs.w	80005b4 <__udivmoddi4+0x294>
 80003a6:	42a5      	cmp	r5, r4
 80003a8:	f240 8104 	bls.w	80005b4 <__udivmoddi4+0x294>
 80003ac:	4464      	add	r4, ip
 80003ae:	3802      	subs	r0, #2
 80003b0:	ea40 4001 	orr.w	r0, r0, r1, lsl #16
 80003b4:	1b64      	subs	r4, r4, r5
 80003b6:	2100      	movs	r1, #0
 80003b8:	b11e      	cbz	r6, 80003c2 <__udivmoddi4+0xa2>
 80003ba:	40dc      	lsrs	r4, r3
 80003bc:	2300      	movs	r3, #0
 80003be:	e9c6 4300 	strd	r4, r3, [r6]
 80003c2:	e8bd 87f0 	ldmia.w	sp!, {r4, r5, r6, r7, r8, r9, sl, pc}
 80003c6:	428b      	cmp	r3, r1
 80003c8:	d908      	bls.n	80003dc <__udivmoddi4+0xbc>
 80003ca:	2e00      	cmp	r6, #0
 80003cc:	f000 80ed 	beq.w	80005aa <__udivmoddi4+0x28a>
 80003d0:	2100      	movs	r1, #0
 80003d2:	e9c6 0500 	strd	r0, r5, [r6]
 80003d6:	4608      	mov	r0, r1
 80003d8:	e8bd 87f0 	ldmia.w	sp!, {r4, r5, r6, r7, r8, r9, sl, pc}
 80003dc:	fab3 f183 	clz	r1, r3
 80003e0:	2900      	cmp	r1, #0
 80003e2:	d149      	bne.n	8000478 <__udivmoddi4+0x158>
 80003e4:	42ab      	cmp	r3, r5
 80003e6:	d302      	bcc.n	80003ee <__udivmoddi4+0xce>
 80003e8:	4282      	cmp	r2, r0
 80003ea:	f200 80f8 	bhi.w	80005de <__udivmoddi4+0x2be>
 80003ee:	1a84      	subs	r4, r0, r2
 80003f0:	eb65 0203 	sbc.w	r2, r5, r3
 80003f4:	2001      	movs	r0, #1
 80003f6:	4617      	mov	r7, r2
 80003f8:	2e00      	cmp	r6, #0
 80003fa:	d0e2      	beq.n	80003c2 <__udivmoddi4+0xa2>
 80003fc:	e9c6 4700 	strd	r4, r7, [r6]
 8000400:	e7df      	b.n	80003c2 <__udivmoddi4+0xa2>
 8000402:	b902      	cbnz	r2, 8000406 <__udivmoddi4+0xe6>
 8000404:	deff      	udf	#255	; 0xff
 8000406:	fab2 f382 	clz	r3, r2
 800040a:	2b00      	cmp	r3, #0
 800040c:	f040 8090 	bne.w	8000530 <__udivmoddi4+0x210>
 8000410:	1a8a      	subs	r2, r1, r2
 8000412:	ea4f 471c 	mov.w	r7, ip, lsr #16
 8000416:	fa1f fe8c 	uxth.w	lr, ip
 800041a:	2101      	movs	r1, #1
 800041c:	fbb2 f5f7 	udiv	r5, r2, r7
 8000420:	fb07 2015 	mls	r0, r7, r5, r2
 8000424:	0c22      	lsrs	r2, r4, #16
 8000426:	ea42 4200 	orr.w	r2, r2, r0, lsl #16
 800042a:	fb0e f005 	mul.w	r0, lr, r5
 800042e:	4290      	cmp	r0, r2
 8000430:	d908      	bls.n	8000444 <__udivmoddi4+0x124>
 8000432:	eb1c 0202 	adds.w	r2, ip, r2
 8000436:	f105 38ff 	add.w	r8, r5, #4294967295
 800043a:	d202      	bcs.n	8000442 <__udivmoddi4+0x122>
 800043c:	4290      	cmp	r0, r2
 800043e:	f200 80cb 	bhi.w	80005d8 <__udivmoddi4+0x2b8>
 8000442:	4645      	mov	r5, r8
 8000444:	1a12      	subs	r2, r2, r0
 8000446:	b2a4      	uxth	r4, r4
 8000448:	fbb2 f0f7 	udiv	r0, r2, r7
 800044c:	fb07 2210 	mls	r2, r7, r0, r2
 8000450:	ea44 4402 	orr.w	r4, r4, r2, lsl #16
 8000454:	fb0e fe00 	mul.w	lr, lr, r0
 8000458:	45a6      	cmp	lr, r4
 800045a:	d908      	bls.n	800046e <__udivmoddi4+0x14e>
 800045c:	eb1c 0404 	adds.w	r4, ip, r4
 8000460:	f100 32ff 	add.w	r2, r0, #4294967295
 8000464:	d202      	bcs.n	800046c <__udivmoddi4+0x14c>
 8000466:	45a6      	cmp	lr, r4
 8000468:	f200 80bb 	bhi.w	80005e2 <__udivmoddi4+0x2c2>
 800046c:	4610      	mov	r0, r2
 800046e:	eba4 040e 	sub.w	r4, r4, lr
 8000472:	ea40 4005 	orr.w	r0, r0, r5, lsl #16
 8000476:	e79f      	b.n	80003b8 <__udivmoddi4+0x98>
 8000478:	f1c1 0720 	rsb	r7, r1, #32
 800047c:	408b      	lsls	r3, r1
 800047e:	fa22 fc07 	lsr.w	ip, r2, r7
 8000482:	ea4c 0c03 	orr.w	ip, ip, r3
 8000486:	fa05 f401 	lsl.w	r4, r5, r1
 800048a:	fa20 f307 	lsr.w	r3, r0, r7
 800048e:	40fd      	lsrs	r5, r7
 8000490:	ea4f 491c 	mov.w	r9, ip, lsr #16
 8000494:	4323      	orrs	r3, r4
 8000496:	fbb5 f8f9 	udiv	r8, r5, r9
 800049a:	fa1f fe8c 	uxth.w	lr, ip
 800049e:	fb09 5518 	mls	r5, r9, r8, r5
 80004a2:	0c1c      	lsrs	r4, r3, #16
 80004a4:	ea44 4405 	orr.w	r4, r4, r5, lsl #16
 80004a8:	fb08 f50e 	mul.w	r5, r8, lr
 80004ac:	42a5      	cmp	r5, r4
 80004ae:	fa02 f201 	lsl.w	r2, r2, r1
 80004b2:	fa00 f001 	lsl.w	r0, r0, r1
 80004b6:	d90b      	bls.n	80004d0 <__udivmoddi4+0x1b0>
 80004b8:	eb1c 0404 	adds.w	r4, ip, r4
 80004bc:	f108 3aff 	add.w	sl, r8, #4294967295
 80004c0:	f080 8088 	bcs.w	80005d4 <__udivmoddi4+0x2b4>
 80004c4:	42a5      	cmp	r5, r4
 80004c6:	f240 8085 	bls.w	80005d4 <__udivmoddi4+0x2b4>
 80004ca:	f1a8 0802 	sub.w	r8, r8, #2
 80004ce:	4464      	add	r4, ip
 80004d0:	1b64      	subs	r4, r4, r5
 80004d2:	b29d      	uxth	r5, r3
 80004d4:	fbb4 f3f9 	udiv	r3, r4, r9
 80004d8:	fb09 4413 	mls	r4, r9, r3, r4
 80004dc:	ea45 4404 	orr.w	r4, r5, r4, lsl #16
 80004e0:	fb03 fe0e 	mul.w	lr, r3, lr
 80004e4:	45a6      	cmp	lr, r4
 80004e6:	d908      	bls.n	80004fa <__udivmoddi4+0x1da>
 80004e8:	eb1c 0404 	adds.w	r4, ip, r4
 80004ec:	f103 35ff 	add.w	r5, r3, #4294967295
 80004f0:	d26c      	bcs.n	80005cc <__udivmoddi4+0x2ac>
 80004f2:	45a6      	cmp	lr, r4
 80004f4:	d96a      	bls.n	80005cc <__udivmoddi4+0x2ac>
 80004f6:	3b02      	subs	r3, #2
 80004f8:	4464      	add	r4, ip
 80004fa:	ea43 4308 	orr.w	r3, r3, r8, lsl #16
 80004fe:	fba3 9502 	umull	r9, r5, r3, r2
 8000502:	eba4 040e 	sub.w	r4, r4, lr
 8000506:	42ac      	cmp	r4, r5
 8000508:	46c8      	mov	r8, r9
 800050a:	46ae      	mov	lr, r5
 800050c:	d356      	bcc.n	80005bc <__udivmoddi4+0x29c>
 800050e:	d053      	beq.n	80005b8 <__udivmoddi4+0x298>
 8000510:	b156      	cbz	r6, 8000528 <__udivmoddi4+0x208>
 8000512:	ebb0 0208 	subs.w	r2, r0, r8
 8000516:	eb64 040e 	sbc.w	r4, r4, lr
 800051a:	fa04 f707 	lsl.w	r7, r4, r7
 800051e:	40ca      	lsrs	r2, r1
 8000520:	40cc      	lsrs	r4, r1
 8000522:	4317      	orrs	r7, r2
 8000524:	e9c6 7400 	strd	r7, r4, [r6]
 8000528:	4618      	mov	r0, r3
 800052a:	2100      	movs	r1, #0
 800052c:	e8bd 87f0 	ldmia.w	sp!, {r4, r5, r6, r7, r8, r9, sl, pc}
 8000530:	f1c3 0120 	rsb	r1, r3, #32
 8000534:	fa02 fc03 	lsl.w	ip, r2, r3
 8000538:	fa20 f201 	lsr.w	r2, r0, r1
 800053c:	fa25 f101 	lsr.w	r1, r5, r1
 8000540:	409d      	lsls	r5, r3
 8000542:	432a      	orrs	r2, r5
 8000544:	ea4f 471c 	mov.w	r7, ip, lsr #16
 8000548:	fa1f fe8c 	uxth.w	lr, ip
 800054c:	fbb1 f0f7 	udiv	r0, r1, r7
 8000550:	fb07 1510 	mls	r5, r7, r0, r1
 8000554:	0c11      	lsrs	r1, r2, #16
 8000556:	ea41 4105 	orr.w	r1, r1, r5, lsl #16
 800055a:	fb00 f50e 	mul.w	r5, r0, lr
 800055e:	428d      	cmp	r5, r1
 8000560:	fa04 f403 	lsl.w	r4, r4, r3
 8000564:	d908      	bls.n	8000578 <__udivmoddi4+0x258>
 8000566:	eb1c 0101 	adds.w	r1, ip, r1
 800056a:	f100 38ff 	add.w	r8, r0, #4294967295
 800056e:	d22f      	bcs.n	80005d0 <__udivmoddi4+0x2b0>
 8000570:	428d      	cmp	r5, r1
 8000572:	d92d      	bls.n	80005d0 <__udivmoddi4+0x2b0>
 8000574:	3802      	subs	r0, #2
 8000576:	4461      	add	r1, ip
 8000578:	1b49      	subs	r1, r1, r5
 800057a:	b292      	uxth	r2, r2
 800057c:	fbb1 f5f7 	udiv	r5, r1, r7
 8000580:	fb07 1115 	mls	r1, r7, r5, r1
 8000584:	ea42 4201 	orr.w	r2, r2, r1, lsl #16
 8000588:	fb05 f10e 	mul.w	r1, r5, lr
 800058c:	4291      	cmp	r1, r2
 800058e:	d908      	bls.n	80005a2 <__udivmoddi4+0x282>
 8000590:	eb1c 0202 	adds.w	r2, ip, r2
 8000594:	f105 38ff 	add.w	r8, r5, #4294967295
 8000598:	d216      	bcs.n	80005c8 <__udivmoddi4+0x2a8>
 800059a:	4291      	cmp	r1, r2
 800059c:	d914      	bls.n	80005c8 <__udivmoddi4+0x2a8>
 800059e:	3d02      	subs	r5, #2
 80005a0:	4462      	add	r2, ip
 80005a2:	1a52      	subs	r2, r2, r1
 80005a4:	ea45 4100 	orr.w	r1, r5, r0, lsl #16
 80005a8:	e738      	b.n	800041c <__udivmoddi4+0xfc>
 80005aa:	4631      	mov	r1, r6
 80005ac:	4630      	mov	r0, r6
 80005ae:	e708      	b.n	80003c2 <__udivmoddi4+0xa2>
 80005b0:	4639      	mov	r1, r7
 80005b2:	e6e6      	b.n	8000382 <__udivmoddi4+0x62>
 80005b4:	4610      	mov	r0, r2
 80005b6:	e6fb      	b.n	80003b0 <__udivmoddi4+0x90>
 80005b8:	4548      	cmp	r0, r9
 80005ba:	d2a9      	bcs.n	8000510 <__udivmoddi4+0x1f0>
 80005bc:	ebb9 0802 	subs.w	r8, r9, r2
 80005c0:	eb65 0e0c 	sbc.w	lr, r5, ip
 80005c4:	3b01      	subs	r3, #1
 80005c6:	e7a3      	b.n	8000510 <__udivmoddi4+0x1f0>
 80005c8:	4645      	mov	r5, r8
 80005ca:	e7ea      	b.n	80005a2 <__udivmoddi4+0x282>
 80005cc:	462b      	mov	r3, r5
 80005ce:	e794      	b.n	80004fa <__udivmoddi4+0x1da>
 80005d0:	4640      	mov	r0, r8
 80005d2:	e7d1      	b.n	8000578 <__udivmoddi4+0x258>
 80005d4:	46d0      	mov	r8, sl
 80005d6:	e77b      	b.n	80004d0 <__udivmoddi4+0x1b0>
 80005d8:	3d02      	subs	r5, #2
 80005da:	4462      	add	r2, ip
 80005dc:	e732      	b.n	8000444 <__udivmoddi4+0x124>
 80005de:	4608      	mov	r0, r1
 80005e0:	e70a      	b.n	80003f8 <__udivmoddi4+0xd8>
 80005e2:	4464      	add	r4, ip
 80005e4:	3802      	subs	r0, #2
 80005e6:	e742      	b.n	800046e <__udivmoddi4+0x14e>

080005e8 <__aeabi_idiv0>:
 80005e8:	4770      	bx	lr
 80005ea:	bf00      	nop

080005ec <MX_DMA_Init>:
 80005ec:	4b0e      	ldr	r3, [pc, #56]	; (8000628 <MX_DMA_Init+0x3c>)
 80005ee:	b507      	push	{r0, r1, r2, lr}
 80005f0:	6b1a      	ldr	r2, [r3, #48]	; 0x30
 80005f2:	2010      	movs	r0, #16
 80005f4:	f442 1200 	orr.w	r2, r2, #2097152	; 0x200000
 80005f8:	631a      	str	r2, [r3, #48]	; 0x30
 80005fa:	2200      	movs	r2, #0
 80005fc:	6b1b      	ldr	r3, [r3, #48]	; 0x30
 80005fe:	4611      	mov	r1, r2
 8000600:	f403 1300 	and.w	r3, r3, #2097152	; 0x200000
 8000604:	9301      	str	r3, [sp, #4]
 8000606:	9b01      	ldr	r3, [sp, #4]
 8000608:	f000 fbe4 	bl	8000dd4 <HAL_NVIC_SetPriority>
 800060c:	2010      	movs	r0, #16
 800060e:	f000 fc13 	bl	8000e38 <HAL_NVIC_EnableIRQ>
 8000612:	2200      	movs	r2, #0
 8000614:	2011      	movs	r0, #17
 8000616:	4611      	mov	r1, r2
 8000618:	f000 fbdc 	bl	8000dd4 <HAL_NVIC_SetPriority>
 800061c:	2011      	movs	r0, #17
 800061e:	b003      	add	sp, #12
 8000620:	f85d eb04 	ldr.w	lr, [sp], #4
 8000624:	f000 bc08 	b.w	8000e38 <HAL_NVIC_EnableIRQ>
 8000628:	40023800 	.word	0x40023800

0800062c <MX_GPIO_Init>:
 800062c:	b5f0      	push	{r4, r5, r6, r7, lr}
 800062e:	b08d      	sub	sp, #52	; 0x34
 8000630:	2214      	movs	r2, #20
 8000632:	2100      	movs	r1, #0
 8000634:	4f43      	ldr	r7, [pc, #268]	; (8000744 <MX_GPIO_Init+0x118>)
 8000636:	a807      	add	r0, sp, #28
 8000638:	4d43      	ldr	r5, [pc, #268]	; (8000748 <MX_GPIO_Init+0x11c>)
 800063a:	f003 fd8d 	bl	8004158 <memset>
 800063e:	4b43      	ldr	r3, [pc, #268]	; (800074c <MX_GPIO_Init+0x120>)
 8000640:	4638      	mov	r0, r7
 8000642:	f244 0181 	movw	r1, #16513	; 0x4081
 8000646:	6b1a      	ldr	r2, [r3, #48]	; 0x30
 8000648:	2400      	movs	r4, #0
 800064a:	2601      	movs	r6, #1
 800064c:	f042 0204 	orr.w	r2, r2, #4
 8000650:	631a      	str	r2, [r3, #48]	; 0x30
 8000652:	6b1a      	ldr	r2, [r3, #48]	; 0x30
 8000654:	f002 0204 	and.w	r2, r2, #4
 8000658:	9201      	str	r2, [sp, #4]
 800065a:	9a01      	ldr	r2, [sp, #4]
 800065c:	6b1a      	ldr	r2, [r3, #48]	; 0x30
 800065e:	f042 0280 	orr.w	r2, r2, #128	; 0x80
 8000662:	631a      	str	r2, [r3, #48]	; 0x30
 8000664:	6b1a      	ldr	r2, [r3, #48]	; 0x30
 8000666:	f002 0280 	and.w	r2, r2, #128	; 0x80
 800066a:	9202      	str	r2, [sp, #8]
 800066c:	9a02      	ldr	r2, [sp, #8]
 800066e:	6b1a      	ldr	r2, [r3, #48]	; 0x30
 8000670:	f042 0201 	orr.w	r2, r2, #1
 8000674:	631a      	str	r2, [r3, #48]	; 0x30
 8000676:	6b1a      	ldr	r2, [r3, #48]	; 0x30
 8000678:	f002 0201 	and.w	r2, r2, #1
 800067c:	9203      	str	r2, [sp, #12]
 800067e:	9a03      	ldr	r2, [sp, #12]
 8000680:	6b1a      	ldr	r2, [r3, #48]	; 0x30
 8000682:	f042 0202 	orr.w	r2, r2, #2
 8000686:	631a      	str	r2, [r3, #48]	; 0x30
 8000688:	6b1a      	ldr	r2, [r3, #48]	; 0x30
 800068a:	f002 0202 	and.w	r2, r2, #2
 800068e:	9204      	str	r2, [sp, #16]
 8000690:	9a04      	ldr	r2, [sp, #16]
 8000692:	6b1a      	ldr	r2, [r3, #48]	; 0x30
 8000694:	f042 0208 	orr.w	r2, r2, #8
 8000698:	631a      	str	r2, [r3, #48]	; 0x30
 800069a:	6b1a      	ldr	r2, [r3, #48]	; 0x30
 800069c:	f002 0208 	and.w	r2, r2, #8
 80006a0:	9205      	str	r2, [sp, #20]
 80006a2:	9a05      	ldr	r2, [sp, #20]
 80006a4:	6b1a      	ldr	r2, [r3, #48]	; 0x30
 80006a6:	f042 0240 	orr.w	r2, r2, #64	; 0x40
 80006aa:	631a      	str	r2, [r3, #48]	; 0x30
 80006ac:	2200      	movs	r2, #0
 80006ae:	6b1b      	ldr	r3, [r3, #48]	; 0x30
 80006b0:	f003 0340 	and.w	r3, r3, #64	; 0x40
 80006b4:	9306      	str	r3, [sp, #24]
 80006b6:	9b06      	ldr	r3, [sp, #24]
 80006b8:	f000 feb0 	bl	800141c <HAL_GPIO_WritePin>
 80006bc:	4628      	mov	r0, r5
 80006be:	2200      	movs	r2, #0
 80006c0:	2140      	movs	r1, #64	; 0x40
 80006c2:	f000 feab 	bl	800141c <HAL_GPIO_WritePin>
 80006c6:	f44f 5200 	mov.w	r2, #8192	; 0x2000
 80006ca:	4b21      	ldr	r3, [pc, #132]	; (8000750 <MX_GPIO_Init+0x124>)
 80006cc:	a907      	add	r1, sp, #28
 80006ce:	4821      	ldr	r0, [pc, #132]	; (8000754 <MX_GPIO_Init+0x128>)
 80006d0:	9409      	str	r4, [sp, #36]	; 0x24
 80006d2:	e9cd 2307 	strd	r2, r3, [sp, #28]
 80006d6:	f000 fdb9 	bl	800124c <HAL_GPIO_Init>
 80006da:	f244 0381 	movw	r3, #16513	; 0x4081
 80006de:	a907      	add	r1, sp, #28
 80006e0:	4638      	mov	r0, r7
 80006e2:	e9cd 3607 	strd	r3, r6, [sp, #28]
 80006e6:	e9cd 4409 	strd	r4, r4, [sp, #36]	; 0x24
 80006ea:	f000 fdaf 	bl	800124c <HAL_GPIO_Init>
 80006ee:	2340      	movs	r3, #64	; 0x40
 80006f0:	a907      	add	r1, sp, #28
 80006f2:	4628      	mov	r0, r5
 80006f4:	e9cd 3607 	strd	r3, r6, [sp, #28]
 80006f8:	e9cd 4409 	strd	r4, r4, [sp, #36]	; 0x24
 80006fc:	f000 fda6 	bl	800124c <HAL_GPIO_Init>
 8000700:	2380      	movs	r3, #128	; 0x80
 8000702:	a907      	add	r1, sp, #28
 8000704:	4628      	mov	r0, r5
 8000706:	9409      	str	r4, [sp, #36]	; 0x24
 8000708:	e9cd 3407 	strd	r3, r4, [sp, #28]
 800070c:	f000 fd9e 	bl	800124c <HAL_GPIO_Init>
 8000710:	f44f 51e8 	mov.w	r1, #7424	; 0x1d00
 8000714:	2302      	movs	r3, #2
 8000716:	2003      	movs	r0, #3
 8000718:	9409      	str	r4, [sp, #36]	; 0x24
 800071a:	e9cd 1307 	strd	r1, r3, [sp, #28]
 800071e:	230a      	movs	r3, #10
 8000720:	a907      	add	r1, sp, #28
 8000722:	e9cd 030a 	strd	r0, r3, [sp, #40]	; 0x28
 8000726:	480c      	ldr	r0, [pc, #48]	; (8000758 <MX_GPIO_Init+0x12c>)
 8000728:	f000 fd90 	bl	800124c <HAL_GPIO_Init>
 800072c:	f44f 7300 	mov.w	r3, #512	; 0x200
 8000730:	a907      	add	r1, sp, #28
 8000732:	4809      	ldr	r0, [pc, #36]	; (8000758 <MX_GPIO_Init+0x12c>)
 8000734:	9409      	str	r4, [sp, #36]	; 0x24
 8000736:	e9cd 3407 	strd	r3, r4, [sp, #28]
 800073a:	f000 fd87 	bl	800124c <HAL_GPIO_Init>
 800073e:	b00d      	add	sp, #52	; 0x34
 8000740:	bdf0      	pop	{r4, r5, r6, r7, pc}
 8000742:	bf00      	nop
 8000744:	40020400 	.word	0x40020400
 8000748:	40021800 	.word	0x40021800
 800074c:	40023800 	.word	0x40023800
 8000750:	10110000 	.word	0x10110000
 8000754:	40020800 	.word	0x40020800
 8000758:	40020000 	.word	0x40020000

0800075c <HAL_I2C_MspInit>:
 800075c:	b510      	push	{r4, lr}
 800075e:	b088      	sub	sp, #32
 8000760:	4604      	mov	r4, r0
 8000762:	2214      	movs	r2, #20
 8000764:	2100      	movs	r1, #0
 8000766:	a803      	add	r0, sp, #12
 8000768:	f003 fcf6 	bl	8004158 <memset>
 800076c:	6822      	ldr	r2, [r4, #0]
 800076e:	4b13      	ldr	r3, [pc, #76]	; (80007bc <HAL_I2C_MspInit+0x60>)
 8000770:	429a      	cmp	r2, r3
 8000772:	d121      	bne.n	80007b8 <HAL_I2C_MspInit+0x5c>
 8000774:	4c12      	ldr	r4, [pc, #72]	; (80007c0 <HAL_I2C_MspInit+0x64>)
 8000776:	f44f 7240 	mov.w	r2, #768	; 0x300
 800077a:	2101      	movs	r1, #1
 800077c:	4811      	ldr	r0, [pc, #68]	; (80007c4 <HAL_I2C_MspInit+0x68>)
 800077e:	6b23      	ldr	r3, [r4, #48]	; 0x30
 8000780:	f043 0302 	orr.w	r3, r3, #2
 8000784:	6323      	str	r3, [r4, #48]	; 0x30
 8000786:	6b23      	ldr	r3, [r4, #48]	; 0x30
 8000788:	f003 0302 	and.w	r3, r3, #2
 800078c:	9301      	str	r3, [sp, #4]
 800078e:	9b01      	ldr	r3, [sp, #4]
 8000790:	2312      	movs	r3, #18
 8000792:	e9cd 2303 	strd	r2, r3, [sp, #12]
 8000796:	2303      	movs	r3, #3
 8000798:	e9cd 1305 	strd	r1, r3, [sp, #20]
 800079c:	2304      	movs	r3, #4
 800079e:	a903      	add	r1, sp, #12
 80007a0:	9307      	str	r3, [sp, #28]
 80007a2:	f000 fd53 	bl	800124c <HAL_GPIO_Init>
 80007a6:	6c23      	ldr	r3, [r4, #64]	; 0x40
 80007a8:	f443 1300 	orr.w	r3, r3, #2097152	; 0x200000
 80007ac:	6423      	str	r3, [r4, #64]	; 0x40
 80007ae:	6c23      	ldr	r3, [r4, #64]	; 0x40
 80007b0:	f403 1300 	and.w	r3, r3, #2097152	; 0x200000
 80007b4:	9302      	str	r3, [sp, #8]
 80007b6:	9b02      	ldr	r3, [sp, #8]
 80007b8:	b008      	add	sp, #32
 80007ba:	bd10      	pop	{r4, pc}
 80007bc:	40005400 	.word	0x40005400
 80007c0:	40023800 	.word	0x40023800
 80007c4:	40020400 	.word	0x40020400

080007c8 <SystemClock_Config>:
 80007c8:	b510      	push	{r4, lr}
 80007ca:	b0b8      	sub	sp, #224	; 0xe0
 80007cc:	2234      	movs	r2, #52	; 0x34
 80007ce:	2100      	movs	r1, #0
 80007d0:	2402      	movs	r4, #2
 80007d2:	a807      	add	r0, sp, #28
 80007d4:	f003 fcc0 	bl	8004158 <memset>
 80007d8:	2214      	movs	r2, #20
 80007da:	2100      	movs	r1, #0
 80007dc:	a802      	add	r0, sp, #8
 80007de:	f003 fcbb 	bl	8004158 <memset>
 80007e2:	2290      	movs	r2, #144	; 0x90
 80007e4:	2100      	movs	r1, #0
 80007e6:	a814      	add	r0, sp, #80	; 0x50
 80007e8:	f003 fcb6 	bl	8004158 <memset>
 80007ec:	f001 f976 	bl	8001adc <HAL_PWR_EnableBkUpAccess>
 80007f0:	4b26      	ldr	r3, [pc, #152]	; (800088c <SystemClock_Config+0xc4>)
 80007f2:	2101      	movs	r1, #1
 80007f4:	2004      	movs	r0, #4
 80007f6:	6c1a      	ldr	r2, [r3, #64]	; 0x40
 80007f8:	f042 5280 	orr.w	r2, r2, #268435456	; 0x10000000
 80007fc:	641a      	str	r2, [r3, #64]	; 0x40
 80007fe:	6c1b      	ldr	r3, [r3, #64]	; 0x40
 8000800:	f003 5380 	and.w	r3, r3, #268435456	; 0x10000000
 8000804:	9300      	str	r3, [sp, #0]
 8000806:	9b00      	ldr	r3, [sp, #0]
 8000808:	4b21      	ldr	r3, [pc, #132]	; (8000890 <SystemClock_Config+0xc8>)
 800080a:	681a      	ldr	r2, [r3, #0]
 800080c:	f442 4240 	orr.w	r2, r2, #49152	; 0xc000
 8000810:	601a      	str	r2, [r3, #0]
 8000812:	681b      	ldr	r3, [r3, #0]
 8000814:	9411      	str	r4, [sp, #68]	; 0x44
 8000816:	f403 4340 	and.w	r3, r3, #49152	; 0xc000
 800081a:	9301      	str	r3, [sp, #4]
 800081c:	9b01      	ldr	r3, [sp, #4]
 800081e:	f44f 23a0 	mov.w	r3, #327680	; 0x50000
 8000822:	e9cd 1307 	strd	r1, r3, [sp, #28]
 8000826:	f44f 0380 	mov.w	r3, #4194304	; 0x400000
 800082a:	e9cd 430d 	strd	r4, r3, [sp, #52]	; 0x34
 800082e:	23d8      	movs	r3, #216	; 0xd8
 8000830:	e9cd 030f 	strd	r0, r3, [sp, #60]	; 0x3c
 8000834:	2309      	movs	r3, #9
 8000836:	a807      	add	r0, sp, #28
 8000838:	9312      	str	r3, [sp, #72]	; 0x48
 800083a:	f001 f98f 	bl	8001b5c <HAL_RCC_OscConfig>
 800083e:	b108      	cbz	r0, 8000844 <SystemClock_Config+0x7c>
 8000840:	b672      	cpsid	i
 8000842:	e7fe      	b.n	8000842 <SystemClock_Config+0x7a>
 8000844:	f001 f952 	bl	8001aec <HAL_PWREx_EnableOverDrive>
 8000848:	b108      	cbz	r0, 800084e <SystemClock_Config+0x86>
 800084a:	b672      	cpsid	i
 800084c:	e7fe      	b.n	800084c <SystemClock_Config+0x84>
 800084e:	230f      	movs	r3, #15
 8000850:	f44f 52a0 	mov.w	r2, #5120	; 0x1400
 8000854:	9004      	str	r0, [sp, #16]
 8000856:	2107      	movs	r1, #7
 8000858:	a802      	add	r0, sp, #8
 800085a:	e9cd 3402 	strd	r3, r4, [sp, #8]
 800085e:	f44f 5380 	mov.w	r3, #4096	; 0x1000
 8000862:	e9cd 2305 	strd	r2, r3, [sp, #20]
 8000866:	f001 fb69 	bl	8001f3c <HAL_RCC_ClockConfig>
 800086a:	b108      	cbz	r0, 8000870 <SystemClock_Config+0xa8>
 800086c:	b672      	cpsid	i
 800086e:	e7fe      	b.n	800086e <SystemClock_Config+0xa6>
 8000870:	4b08      	ldr	r3, [pc, #32]	; (8000894 <SystemClock_Config+0xcc>)
 8000872:	902d      	str	r0, [sp, #180]	; 0xb4
 8000874:	9033      	str	r0, [sp, #204]	; 0xcc
 8000876:	9314      	str	r3, [sp, #80]	; 0x50
 8000878:	e9cd 0026 	strd	r0, r0, [sp, #152]	; 0x98
 800087c:	a814      	add	r0, sp, #80	; 0x50
 800087e:	f001 fc1b 	bl	80020b8 <HAL_RCCEx_PeriphCLKConfig>
 8000882:	b108      	cbz	r0, 8000888 <SystemClock_Config+0xc0>
 8000884:	b672      	cpsid	i
 8000886:	e7fe      	b.n	8000886 <SystemClock_Config+0xbe>
 8000888:	b038      	add	sp, #224	; 0xe0
 800088a:	bd10      	pop	{r4, pc}
 800088c:	40023800 	.word	0x40023800
 8000890:	40007000 	.word	0x40007000
 8000894:	00204180 	.word	0x00204180

08000898 <main>:
 8000898:	e92d 43f8 	stmdb	sp!, {r3, r4, r5, r6, r7, r8, r9, lr}
 800089c:	f000 fa6a 	bl	8000d74 <HAL_Init>
 80008a0:	4d4d      	ldr	r5, [pc, #308]	; (80009d8 <main+0x140>)
 80008a2:	f7ff ff91 	bl	80007c8 <SystemClock_Config>
 80008a6:	f7ff fec1 	bl	800062c <MX_GPIO_Init>
 80008aa:	f7ff fe9f 	bl	80005ec <MX_DMA_Init>
 80008ae:	f000 f94f 	bl	8000b50 <MX_USART3_UART_Init>
 80008b2:	2201      	movs	r2, #1
 80008b4:	4949      	ldr	r1, [pc, #292]	; (80009dc <main+0x144>)
 80008b6:	484a      	ldr	r0, [pc, #296]	; (80009e0 <main+0x148>)
 80008b8:	f001 febe 	bl	8002638 <HAL_UART_Receive_IT>
 80008bc:	2003      	movs	r0, #3
 80008be:	f003 fa0f 	bl	8003ce0 <DebugLevelInit>
 80008c2:	f002 fdff 	bl	80034c4 <Heart_Sensor_Init>
 80008c6:	682b      	ldr	r3, [r5, #0]
 80008c8:	2800      	cmp	r0, #0
 80008ca:	d15a      	bne.n	8000982 <main+0xea>
 80008cc:	2b00      	cmp	r3, #0
 80008ce:	db15      	blt.n	80008fc <main+0x64>
 80008d0:	f003 f900 	bl	8003ad4 <os_time_get>
 80008d4:	4604      	mov	r4, r0
 80008d6:	f003 f8fd 	bl	8003ad4 <os_time_get>
 80008da:	f44f 717a 	mov.w	r1, #1000	; 0x3e8
 80008de:	fbb0 f2f1 	udiv	r2, r0, r1
 80008e2:	fb02 0211 	mls	r2, r2, r1, r0
 80008e6:	483f      	ldr	r0, [pc, #252]	; (80009e4 <main+0x14c>)
 80008e8:	fbb4 f1f1 	udiv	r1, r4, r1
 80008ec:	f003 fac0 	bl	8003e70 <iprintf>
 80008f0:	483d      	ldr	r0, [pc, #244]	; (80009e8 <main+0x150>)
 80008f2:	f003 fabd 	bl	8003e70 <iprintf>
 80008f6:	483d      	ldr	r0, [pc, #244]	; (80009ec <main+0x154>)
 80008f8:	f003 fb20 	bl	8003f3c <puts>
 80008fc:	4f3c      	ldr	r7, [pc, #240]	; (80009f0 <main+0x158>)
 80008fe:	f8df 810c 	ldr.w	r8, [pc, #268]	; 8000a0c <main+0x174>
 8000902:	4e3c      	ldr	r6, [pc, #240]	; (80009f4 <main+0x15c>)
 8000904:	2000      	movs	r0, #0
 8000906:	f002 fde5 	bl	80034d4 <Get_HeartRate_and_Oxygen>
 800090a:	682b      	ldr	r3, [r5, #0]
 800090c:	2800      	cmp	r0, #0
 800090e:	d14c      	bne.n	80009aa <main+0x112>
 8000910:	2b00      	cmp	r3, #0
 8000912:	dd31      	ble.n	8000978 <main+0xe0>
 8000914:	f44f 747a 	mov.w	r4, #1000	; 0x3e8
 8000918:	f003 f8dc 	bl	8003ad4 <os_time_get>
 800091c:	4681      	mov	r9, r0
 800091e:	f003 f8d9 	bl	8003ad4 <os_time_get>
 8000922:	fbb0 f2f4 	udiv	r2, r0, r4
 8000926:	fbb9 f1f4 	udiv	r1, r9, r4
 800092a:	fb02 0214 	mls	r2, r2, r4, r0
 800092e:	4832      	ldr	r0, [pc, #200]	; (80009f8 <main+0x160>)
 8000930:	f003 fa9e 	bl	8003e70 <iprintf>
 8000934:	4831      	ldr	r0, [pc, #196]	; (80009fc <main+0x164>)
 8000936:	f003 fa9b 	bl	8003e70 <iprintf>
 800093a:	482c      	ldr	r0, [pc, #176]	; (80009ec <main+0x154>)
 800093c:	f003 fafe 	bl	8003f3c <puts>
 8000940:	682b      	ldr	r3, [r5, #0]
 8000942:	2b00      	cmp	r3, #0
 8000944:	dd18      	ble.n	8000978 <main+0xe0>
 8000946:	f003 f8c5 	bl	8003ad4 <os_time_get>
 800094a:	4681      	mov	r9, r0
 800094c:	f003 f8c2 	bl	8003ad4 <os_time_get>
 8000950:	fbb0 f2f4 	udiv	r2, r0, r4
 8000954:	fbb9 f1f4 	udiv	r1, r9, r4
 8000958:	fb02 0214 	mls	r2, r2, r4, r0
 800095c:	4826      	ldr	r0, [pc, #152]	; (80009f8 <main+0x160>)
 800095e:	f003 fa87 	bl	8003e70 <iprintf>
 8000962:	4b27      	ldr	r3, [pc, #156]	; (8000a00 <main+0x168>)
 8000964:	4827      	ldr	r0, [pc, #156]	; (8000a04 <main+0x16c>)
 8000966:	f8d3 200a 	ldr.w	r2, [r3, #10]
 800096a:	f8d3 1006 	ldr.w	r1, [r3, #6]
 800096e:	f003 fa7f 	bl	8003e70 <iprintf>
 8000972:	481e      	ldr	r0, [pc, #120]	; (80009ec <main+0x154>)
 8000974:	f003 fae2 	bl	8003f3c <puts>
 8000978:	2101      	movs	r1, #1
 800097a:	4630      	mov	r0, r6
 800097c:	f000 fd53 	bl	8001426 <HAL_GPIO_TogglePin>
 8000980:	e7c0      	b.n	8000904 <main+0x6c>
 8000982:	2b00      	cmp	r3, #0
 8000984:	dbba      	blt.n	80008fc <main+0x64>
 8000986:	f003 f8a5 	bl	8003ad4 <os_time_get>
 800098a:	4604      	mov	r4, r0
 800098c:	f003 f8a2 	bl	8003ad4 <os_time_get>
 8000990:	f44f 717a 	mov.w	r1, #1000	; 0x3e8
 8000994:	fbb0 f2f1 	udiv	r2, r0, r1
 8000998:	fb02 0211 	mls	r2, r2, r1, r0
 800099c:	4811      	ldr	r0, [pc, #68]	; (80009e4 <main+0x14c>)
 800099e:	fbb4 f1f1 	udiv	r1, r4, r1
 80009a2:	f003 fa65 	bl	8003e70 <iprintf>
 80009a6:	4818      	ldr	r0, [pc, #96]	; (8000a08 <main+0x170>)
 80009a8:	e7a3      	b.n	80008f2 <main+0x5a>
 80009aa:	2b02      	cmp	r3, #2
 80009ac:	dde4      	ble.n	8000978 <main+0xe0>
 80009ae:	f003 f891 	bl	8003ad4 <os_time_get>
 80009b2:	4604      	mov	r4, r0
 80009b4:	f003 f88e 	bl	8003ad4 <os_time_get>
 80009b8:	f44f 717a 	mov.w	r1, #1000	; 0x3e8
 80009bc:	fbb0 f2f1 	udiv	r2, r0, r1
 80009c0:	fb02 0211 	mls	r2, r2, r1, r0
 80009c4:	4638      	mov	r0, r7
 80009c6:	fbb4 f1f1 	udiv	r1, r4, r1
 80009ca:	f003 fa51 	bl	8003e70 <iprintf>
 80009ce:	4640      	mov	r0, r8
 80009d0:	f003 fa4e 	bl	8003e70 <iprintf>
 80009d4:	e7cd      	b.n	8000972 <main+0xda>
 80009d6:	bf00      	nop
 80009d8:	20000058 	.word	0x20000058
 80009dc:	200031f0 	.word	0x200031f0
 80009e0:	20000264 	.word	0x20000264
 80009e4:	08005650 	.word	0x08005650
 80009e8:	08005660 	.word	0x08005660
 80009ec:	08005681 	.word	0x08005681
 80009f0:	080056e3 	.word	0x080056e3
 80009f4:	40020400 	.word	0x40020400
 80009f8:	0800569e 	.word	0x0800569e
 80009fc:	080056ae 	.word	0x080056ae
 8000a00:	20000028 	.word	0x20000028
 8000a04:	080056c4 	.word	0x080056c4
 8000a08:	08005683 	.word	0x08005683
 8000a0c:	080056f3 	.word	0x080056f3

08000a10 <Error_Handler>:
 8000a10:	b672      	cpsid	i
 8000a12:	e7fe      	b.n	8000a12 <Error_Handler+0x2>

08000a14 <HAL_MspInit>:
 8000a14:	4b0b      	ldr	r3, [pc, #44]	; (8000a44 <HAL_MspInit+0x30>)
 8000a16:	b082      	sub	sp, #8
 8000a18:	2005      	movs	r0, #5
 8000a1a:	6c1a      	ldr	r2, [r3, #64]	; 0x40
 8000a1c:	f042 5280 	orr.w	r2, r2, #268435456	; 0x10000000
 8000a20:	641a      	str	r2, [r3, #64]	; 0x40
 8000a22:	6c1a      	ldr	r2, [r3, #64]	; 0x40
 8000a24:	f002 5280 	and.w	r2, r2, #268435456	; 0x10000000
 8000a28:	9200      	str	r2, [sp, #0]
 8000a2a:	9a00      	ldr	r2, [sp, #0]
 8000a2c:	6c5a      	ldr	r2, [r3, #68]	; 0x44
 8000a2e:	f442 4280 	orr.w	r2, r2, #16384	; 0x4000
 8000a32:	645a      	str	r2, [r3, #68]	; 0x44
 8000a34:	6c5b      	ldr	r3, [r3, #68]	; 0x44
 8000a36:	f403 4380 	and.w	r3, r3, #16384	; 0x4000
 8000a3a:	9301      	str	r3, [sp, #4]
 8000a3c:	9b01      	ldr	r3, [sp, #4]
 8000a3e:	b002      	add	sp, #8
 8000a40:	f000 b9b6 	b.w	8000db0 <HAL_NVIC_SetPriorityGrouping>
 8000a44:	40023800 	.word	0x40023800

08000a48 <NMI_Handler>:
 8000a48:	e7fe      	b.n	8000a48 <NMI_Handler>

08000a4a <HardFault_Handler>:
 8000a4a:	e7fe      	b.n	8000a4a <HardFault_Handler>

08000a4c <MemManage_Handler>:
 8000a4c:	e7fe      	b.n	8000a4c <MemManage_Handler>

08000a4e <BusFault_Handler>:
 8000a4e:	e7fe      	b.n	8000a4e <BusFault_Handler>

08000a50 <UsageFault_Handler>:
 8000a50:	e7fe      	b.n	8000a50 <UsageFault_Handler>

08000a52 <SVC_Handler>:
 8000a52:	4770      	bx	lr

08000a54 <DebugMon_Handler>:
 8000a54:	4770      	bx	lr

08000a56 <PendSV_Handler>:
 8000a56:	4770      	bx	lr

08000a58 <SysTick_Handler>:
 8000a58:	f000 b998 	b.w	8000d8c <HAL_IncTick>

08000a5c <DMA1_Stream5_IRQHandler>:
 8000a5c:	4801      	ldr	r0, [pc, #4]	; (8000a64 <DMA1_Stream5_IRQHandler+0x8>)
 8000a5e:	f000 bb35 	b.w	80010cc <HAL_DMA_IRQHandler>
 8000a62:	bf00      	nop
 8000a64:	20000124 	.word	0x20000124

08000a68 <DMA1_Stream6_IRQHandler>:
 8000a68:	4801      	ldr	r0, [pc, #4]	; (8000a70 <DMA1_Stream6_IRQHandler+0x8>)
 8000a6a:	f000 bb2f 	b.w	80010cc <HAL_DMA_IRQHandler>
 8000a6e:	bf00      	nop
 8000a70:	20000184 	.word	0x20000184

08000a74 <USART2_IRQHandler>:
 8000a74:	b508      	push	{r3, lr}
 8000a76:	4b07      	ldr	r3, [pc, #28]	; (8000a94 <USART2_IRQHandler+0x20>)
 8000a78:	681b      	ldr	r3, [r3, #0]
 8000a7a:	69da      	ldr	r2, [r3, #28]
 8000a7c:	06d2      	lsls	r2, r2, #27
 8000a7e:	d503      	bpl.n	8000a88 <USART2_IRQHandler+0x14>
 8000a80:	2210      	movs	r2, #16
 8000a82:	621a      	str	r2, [r3, #32]
 8000a84:	f003 f802 	bl	8003a8c <UART2_Callback_Handler>
 8000a88:	4802      	ldr	r0, [pc, #8]	; (8000a94 <USART2_IRQHandler+0x20>)
 8000a8a:	e8bd 4008 	ldmia.w	sp!, {r3, lr}
 8000a8e:	f001 bf57 	b.w	8002940 <HAL_UART_IRQHandler>
 8000a92:	bf00      	nop
 8000a94:	200001e4 	.word	0x200001e4

08000a98 <USART3_IRQHandler>:
 8000a98:	4801      	ldr	r0, [pc, #4]	; (8000aa0 <USART3_IRQHandler+0x8>)
 8000a9a:	f001 bf51 	b.w	8002940 <HAL_UART_IRQHandler>
 8000a9e:	bf00      	nop
 8000aa0:	20000264 	.word	0x20000264

08000aa4 <_read>:
 8000aa4:	b570      	push	{r4, r5, r6, lr}
 8000aa6:	460d      	mov	r5, r1
 8000aa8:	4614      	mov	r4, r2
 8000aaa:	460e      	mov	r6, r1
 8000aac:	1b73      	subs	r3, r6, r5
 8000aae:	429c      	cmp	r4, r3
 8000ab0:	dc01      	bgt.n	8000ab6 <_read+0x12>
 8000ab2:	4620      	mov	r0, r4
 8000ab4:	bd70      	pop	{r4, r5, r6, pc}
 8000ab6:	f3af 8000 	nop.w
 8000aba:	f806 0b01 	strb.w	r0, [r6], #1
 8000abe:	e7f5      	b.n	8000aac <_read+0x8>

08000ac0 <_write>:
 8000ac0:	b570      	push	{r4, r5, r6, lr}
 8000ac2:	460d      	mov	r5, r1
 8000ac4:	4614      	mov	r4, r2
 8000ac6:	460e      	mov	r6, r1
 8000ac8:	1b73      	subs	r3, r6, r5
 8000aca:	429c      	cmp	r4, r3
 8000acc:	dc01      	bgt.n	8000ad2 <_write+0x12>
 8000ace:	4620      	mov	r0, r4
 8000ad0:	bd70      	pop	{r4, r5, r6, pc}
 8000ad2:	f816 0b01 	ldrb.w	r0, [r6], #1
 8000ad6:	f003 f8f3 	bl	8003cc0 <__io_putchar>
 8000ada:	e7f5      	b.n	8000ac8 <_write+0x8>

08000adc <_close>:
 8000adc:	f04f 30ff 	mov.w	r0, #4294967295
 8000ae0:	4770      	bx	lr

08000ae2 <_fstat>:
 8000ae2:	f44f 5300 	mov.w	r3, #8192	; 0x2000
 8000ae6:	2000      	movs	r0, #0
 8000ae8:	604b      	str	r3, [r1, #4]
 8000aea:	4770      	bx	lr

08000aec <_isatty>:
 8000aec:	2001      	movs	r0, #1
 8000aee:	4770      	bx	lr

08000af0 <_lseek>:
 8000af0:	2000      	movs	r0, #0
 8000af2:	4770      	bx	lr

08000af4 <_sbrk>:
 8000af4:	4a0b      	ldr	r2, [pc, #44]	; (8000b24 <_sbrk+0x30>)
 8000af6:	4603      	mov	r3, r0
 8000af8:	6811      	ldr	r1, [r2, #0]
 8000afa:	b510      	push	{r4, lr}
 8000afc:	b909      	cbnz	r1, 8000b02 <_sbrk+0xe>
 8000afe:	490a      	ldr	r1, [pc, #40]	; (8000b28 <_sbrk+0x34>)
 8000b00:	6011      	str	r1, [r2, #0]
 8000b02:	6810      	ldr	r0, [r2, #0]
 8000b04:	4909      	ldr	r1, [pc, #36]	; (8000b2c <_sbrk+0x38>)
 8000b06:	4c0a      	ldr	r4, [pc, #40]	; (8000b30 <_sbrk+0x3c>)
 8000b08:	4403      	add	r3, r0
 8000b0a:	1b09      	subs	r1, r1, r4
 8000b0c:	428b      	cmp	r3, r1
 8000b0e:	d906      	bls.n	8000b1e <_sbrk+0x2a>
 8000b10:	f003 fb7e 	bl	8004210 <__errno>
 8000b14:	230c      	movs	r3, #12
 8000b16:	6003      	str	r3, [r0, #0]
 8000b18:	f04f 30ff 	mov.w	r0, #4294967295
 8000b1c:	bd10      	pop	{r4, pc}
 8000b1e:	6013      	str	r3, [r2, #0]
 8000b20:	e7fc      	b.n	8000b1c <_sbrk+0x28>
 8000b22:	bf00      	nop
 8000b24:	20000120 	.word	0x20000120
 8000b28:	20003340 	.word	0x20003340
 8000b2c:	20080000 	.word	0x20080000
 8000b30:	00000400 	.word	0x00000400

08000b34 <SystemInit>:
 8000b34:	4b05      	ldr	r3, [pc, #20]	; (8000b4c <SystemInit+0x18>)
 8000b36:	f8d3 2088 	ldr.w	r2, [r3, #136]	; 0x88
 8000b3a:	f442 0270 	orr.w	r2, r2, #15728640	; 0xf00000
 8000b3e:	f8c3 2088 	str.w	r2, [r3, #136]	; 0x88
 8000b42:	f04f 6200 	mov.w	r2, #134217728	; 0x8000000
 8000b46:	609a      	str	r2, [r3, #8]
 8000b48:	4770      	bx	lr
 8000b4a:	bf00      	nop
 8000b4c:	e000ed00 	.word	0xe000ed00

08000b50 <MX_USART3_UART_Init>:
 8000b50:	b508      	push	{r3, lr}
 8000b52:	480c      	ldr	r0, [pc, #48]	; (8000b84 <MX_USART3_UART_Init+0x34>)
 8000b54:	f44f 33e1 	mov.w	r3, #115200	; 0x1c200
 8000b58:	4a0b      	ldr	r2, [pc, #44]	; (8000b88 <MX_USART3_UART_Init+0x38>)
 8000b5a:	e9c0 2300 	strd	r2, r3, [r0]
 8000b5e:	2300      	movs	r3, #0
 8000b60:	220c      	movs	r2, #12
 8000b62:	e9c0 3302 	strd	r3, r3, [r0, #8]
 8000b66:	6103      	str	r3, [r0, #16]
 8000b68:	6243      	str	r3, [r0, #36]	; 0x24
 8000b6a:	e9c0 2305 	strd	r2, r3, [r0, #20]
 8000b6e:	e9c0 3307 	strd	r3, r3, [r0, #28]
 8000b72:	f002 fa0f 	bl	8002f94 <HAL_UART_Init>
 8000b76:	b118      	cbz	r0, 8000b80 <MX_USART3_UART_Init+0x30>
 8000b78:	e8bd 4008 	ldmia.w	sp!, {r3, lr}
 8000b7c:	f7ff bf48 	b.w	8000a10 <Error_Handler>
 8000b80:	bd08      	pop	{r3, pc}
 8000b82:	bf00      	nop
 8000b84:	20000264 	.word	0x20000264
 8000b88:	40004800 	.word	0x40004800

08000b8c <HAL_UART_MspInit>:
 8000b8c:	2214      	movs	r2, #20
 8000b8e:	2100      	movs	r1, #0
 8000b90:	b530      	push	{r4, r5, lr}
 8000b92:	b08b      	sub	sp, #44	; 0x2c
 8000b94:	4605      	mov	r5, r0
 8000b96:	eb0d 0002 	add.w	r0, sp, r2
 8000b9a:	f003 fadd 	bl	8004158 <memset>
 8000b9e:	682b      	ldr	r3, [r5, #0]
 8000ba0:	4a45      	ldr	r2, [pc, #276]	; (8000cb8 <HAL_UART_MspInit+0x12c>)
 8000ba2:	4293      	cmp	r3, r2
 8000ba4:	d15d      	bne.n	8000c62 <HAL_UART_MspInit+0xd6>
 8000ba6:	4b45      	ldr	r3, [pc, #276]	; (8000cbc <HAL_UART_MspInit+0x130>)
 8000ba8:	2460      	movs	r4, #96	; 0x60
 8000baa:	f04f 0c03 	mov.w	ip, #3
 8000bae:	4844      	ldr	r0, [pc, #272]	; (8000cc0 <HAL_UART_MspInit+0x134>)
 8000bb0:	6c1a      	ldr	r2, [r3, #64]	; 0x40
 8000bb2:	a905      	add	r1, sp, #20
 8000bb4:	f442 3200 	orr.w	r2, r2, #131072	; 0x20000
 8000bb8:	641a      	str	r2, [r3, #64]	; 0x40
 8000bba:	6c1a      	ldr	r2, [r3, #64]	; 0x40
 8000bbc:	f402 3200 	and.w	r2, r2, #131072	; 0x20000
 8000bc0:	9201      	str	r2, [sp, #4]
 8000bc2:	9a01      	ldr	r2, [sp, #4]
 8000bc4:	6b1a      	ldr	r2, [r3, #48]	; 0x30
 8000bc6:	f042 0208 	orr.w	r2, r2, #8
 8000bca:	631a      	str	r2, [r3, #48]	; 0x30
 8000bcc:	6b1b      	ldr	r3, [r3, #48]	; 0x30
 8000bce:	f003 0308 	and.w	r3, r3, #8
 8000bd2:	9302      	str	r3, [sp, #8]
 8000bd4:	9b02      	ldr	r3, [sp, #8]
 8000bd6:	2302      	movs	r3, #2
 8000bd8:	e9cd 4305 	strd	r4, r3, [sp, #20]
 8000bdc:	2307      	movs	r3, #7
 8000bde:	4c39      	ldr	r4, [pc, #228]	; (8000cc4 <HAL_UART_MspInit+0x138>)
 8000be0:	e9cd c308 	strd	ip, r3, [sp, #32]
 8000be4:	f000 fb32 	bl	800124c <HAL_GPIO_Init>
 8000be8:	f04f 6300 	mov.w	r3, #134217728	; 0x8000000
 8000bec:	f8df e0e4 	ldr.w	lr, [pc, #228]	; 8000cd4 <HAL_UART_MspInit+0x148>
 8000bf0:	f44f 6280 	mov.w	r2, #1024	; 0x400
 8000bf4:	4620      	mov	r0, r4
 8000bf6:	e9c4 e300 	strd	lr, r3, [r4]
 8000bfa:	2300      	movs	r3, #0
 8000bfc:	e9c4 3302 	strd	r3, r3, [r4, #8]
 8000c00:	e9c4 2304 	strd	r2, r3, [r4, #16]
 8000c04:	e9c4 3306 	strd	r3, r3, [r4, #24]
 8000c08:	e9c4 3308 	strd	r3, r3, [r4, #32]
 8000c0c:	f000 f94c 	bl	8000ea8 <HAL_DMA_Init>
 8000c10:	b108      	cbz	r0, 8000c16 <HAL_UART_MspInit+0x8a>
 8000c12:	f7ff fefd 	bl	8000a10 <Error_Handler>
 8000c16:	f04f 6300 	mov.w	r3, #134217728	; 0x8000000
 8000c1a:	492b      	ldr	r1, [pc, #172]	; (8000cc8 <HAL_UART_MspInit+0x13c>)
 8000c1c:	66ec      	str	r4, [r5, #108]	; 0x6c
 8000c1e:	2040      	movs	r0, #64	; 0x40
 8000c20:	63a5      	str	r5, [r4, #56]	; 0x38
 8000c22:	f44f 6280 	mov.w	r2, #1024	; 0x400
 8000c26:	4c29      	ldr	r4, [pc, #164]	; (8000ccc <HAL_UART_MspInit+0x140>)
 8000c28:	e9c4 1300 	strd	r1, r3, [r4]
 8000c2c:	2300      	movs	r3, #0
 8000c2e:	e9c4 0302 	strd	r0, r3, [r4, #8]
 8000c32:	4620      	mov	r0, r4
 8000c34:	e9c4 2304 	strd	r2, r3, [r4, #16]
 8000c38:	e9c4 3306 	strd	r3, r3, [r4, #24]
 8000c3c:	e9c4 3308 	strd	r3, r3, [r4, #32]
 8000c40:	f000 f932 	bl	8000ea8 <HAL_DMA_Init>
 8000c44:	b108      	cbz	r0, 8000c4a <HAL_UART_MspInit+0xbe>
 8000c46:	f7ff fee3 	bl	8000a10 <Error_Handler>
 8000c4a:	2026      	movs	r0, #38	; 0x26
 8000c4c:	2201      	movs	r2, #1
 8000c4e:	2102      	movs	r1, #2
 8000c50:	66ac      	str	r4, [r5, #104]	; 0x68
 8000c52:	63a5      	str	r5, [r4, #56]	; 0x38
 8000c54:	f000 f8be 	bl	8000dd4 <HAL_NVIC_SetPriority>
 8000c58:	2026      	movs	r0, #38	; 0x26
 8000c5a:	f000 f8ed 	bl	8000e38 <HAL_NVIC_EnableIRQ>
 8000c5e:	b00b      	add	sp, #44	; 0x2c
 8000c60:	bd30      	pop	{r4, r5, pc}
 8000c62:	4a1b      	ldr	r2, [pc, #108]	; (8000cd0 <HAL_UART_MspInit+0x144>)
 8000c64:	4293      	cmp	r3, r2
 8000c66:	d1fa      	bne.n	8000c5e <HAL_UART_MspInit+0xd2>
 8000c68:	4b14      	ldr	r3, [pc, #80]	; (8000cbc <HAL_UART_MspInit+0x130>)
 8000c6a:	2403      	movs	r4, #3
 8000c6c:	a905      	add	r1, sp, #20
 8000c6e:	4814      	ldr	r0, [pc, #80]	; (8000cc0 <HAL_UART_MspInit+0x134>)
 8000c70:	6c1a      	ldr	r2, [r3, #64]	; 0x40
 8000c72:	f442 2280 	orr.w	r2, r2, #262144	; 0x40000
 8000c76:	641a      	str	r2, [r3, #64]	; 0x40
 8000c78:	6c1a      	ldr	r2, [r3, #64]	; 0x40
 8000c7a:	f402 2280 	and.w	r2, r2, #262144	; 0x40000
 8000c7e:	9203      	str	r2, [sp, #12]
 8000c80:	9a03      	ldr	r2, [sp, #12]
 8000c82:	6b1a      	ldr	r2, [r3, #48]	; 0x30
 8000c84:	f042 0208 	orr.w	r2, r2, #8
 8000c88:	631a      	str	r2, [r3, #48]	; 0x30
 8000c8a:	f44f 7240 	mov.w	r2, #768	; 0x300
 8000c8e:	6b1b      	ldr	r3, [r3, #48]	; 0x30
 8000c90:	f003 0308 	and.w	r3, r3, #8
 8000c94:	9304      	str	r3, [sp, #16]
 8000c96:	9b04      	ldr	r3, [sp, #16]
 8000c98:	2302      	movs	r3, #2
 8000c9a:	e9cd 2305 	strd	r2, r3, [sp, #20]
 8000c9e:	2307      	movs	r3, #7
 8000ca0:	e9cd 4308 	strd	r4, r3, [sp, #32]
 8000ca4:	f000 fad2 	bl	800124c <HAL_GPIO_Init>
 8000ca8:	2027      	movs	r0, #39	; 0x27
 8000caa:	2201      	movs	r2, #1
 8000cac:	4621      	mov	r1, r4
 8000cae:	f000 f891 	bl	8000dd4 <HAL_NVIC_SetPriority>
 8000cb2:	2027      	movs	r0, #39	; 0x27
 8000cb4:	e7d1      	b.n	8000c5a <HAL_UART_MspInit+0xce>
 8000cb6:	bf00      	nop
 8000cb8:	40004400 	.word	0x40004400
 8000cbc:	40023800 	.word	0x40023800
 8000cc0:	40020c00 	.word	0x40020c00
 8000cc4:	20000124 	.word	0x20000124
 8000cc8:	400260a0 	.word	0x400260a0
 8000ccc:	20000184 	.word	0x20000184
 8000cd0:	40004800 	.word	0x40004800
 8000cd4:	40026088 	.word	0x40026088

08000cd8 <Reset_Handler>:
 8000cd8:	f8df d034 	ldr.w	sp, [pc, #52]	; 8000d10 <LoopFillZerobss+0x14>
 8000cdc:	2100      	movs	r1, #0
 8000cde:	e003      	b.n	8000ce8 <LoopCopyDataInit>

08000ce0 <CopyDataInit>:
 8000ce0:	4b0c      	ldr	r3, [pc, #48]	; (8000d14 <LoopFillZerobss+0x18>)
 8000ce2:	585b      	ldr	r3, [r3, r1]
 8000ce4:	5043      	str	r3, [r0, r1]
 8000ce6:	3104      	adds	r1, #4

08000ce8 <LoopCopyDataInit>:
 8000ce8:	480b      	ldr	r0, [pc, #44]	; (8000d18 <LoopFillZerobss+0x1c>)
 8000cea:	4b0c      	ldr	r3, [pc, #48]	; (8000d1c <LoopFillZerobss+0x20>)
 8000cec:	1842      	adds	r2, r0, r1
 8000cee:	429a      	cmp	r2, r3
 8000cf0:	d3f6      	bcc.n	8000ce0 <CopyDataInit>
 8000cf2:	4a0b      	ldr	r2, [pc, #44]	; (8000d20 <LoopFillZerobss+0x24>)
 8000cf4:	e002      	b.n	8000cfc <LoopFillZerobss>

08000cf6 <FillZerobss>:
 8000cf6:	2300      	movs	r3, #0
 8000cf8:	f842 3b04 	str.w	r3, [r2], #4

08000cfc <LoopFillZerobss>:
 8000cfc:	4b09      	ldr	r3, [pc, #36]	; (8000d24 <LoopFillZerobss+0x28>)
 8000cfe:	429a      	cmp	r2, r3
 8000d00:	d3f9      	bcc.n	8000cf6 <FillZerobss>
 8000d02:	f7ff ff17 	bl	8000b34 <SystemInit>
 8000d06:	f003 fa89 	bl	800421c <__libc_init_array>
 8000d0a:	f7ff fdc5 	bl	8000898 <main>
 8000d0e:	4770      	bx	lr
 8000d10:	20080000 	.word	0x20080000
 8000d14:	08005a60 	.word	0x08005a60
 8000d18:	20000000 	.word	0x20000000
 8000d1c:	200000b8 	.word	0x200000b8
 8000d20:	200000b8 	.word	0x200000b8
 8000d24:	20003340 	.word	0x20003340

08000d28 <ADC_IRQHandler>:
 8000d28:	e7fe      	b.n	8000d28 <ADC_IRQHandler>
	...

08000d2c <HAL_InitTick>:
 8000d2c:	b538      	push	{r3, r4, r5, lr}
 8000d2e:	4b0e      	ldr	r3, [pc, #56]	; (8000d68 <HAL_InitTick+0x3c>)
 8000d30:	4605      	mov	r5, r0
 8000d32:	781a      	ldrb	r2, [r3, #0]
 8000d34:	f44f 737a 	mov.w	r3, #1000	; 0x3e8
 8000d38:	fbb3 f3f2 	udiv	r3, r3, r2
 8000d3c:	4a0b      	ldr	r2, [pc, #44]	; (8000d6c <HAL_InitTick+0x40>)
 8000d3e:	6810      	ldr	r0, [r2, #0]
 8000d40:	fbb0 f0f3 	udiv	r0, r0, r3
 8000d44:	f000 f886 	bl	8000e54 <HAL_SYSTICK_Config>
 8000d48:	4604      	mov	r4, r0
 8000d4a:	b958      	cbnz	r0, 8000d64 <HAL_InitTick+0x38>
 8000d4c:	2d0f      	cmp	r5, #15
 8000d4e:	d809      	bhi.n	8000d64 <HAL_InitTick+0x38>
 8000d50:	4602      	mov	r2, r0
 8000d52:	4629      	mov	r1, r5
 8000d54:	f04f 30ff 	mov.w	r0, #4294967295
 8000d58:	f000 f83c 	bl	8000dd4 <HAL_NVIC_SetPriority>
 8000d5c:	4b04      	ldr	r3, [pc, #16]	; (8000d70 <HAL_InitTick+0x44>)
 8000d5e:	4620      	mov	r0, r4
 8000d60:	601d      	str	r5, [r3, #0]
 8000d62:	bd38      	pop	{r3, r4, r5, pc}
 8000d64:	2001      	movs	r0, #1
 8000d66:	e7fc      	b.n	8000d62 <HAL_InitTick+0x36>
 8000d68:	20000004 	.word	0x20000004
 8000d6c:	20000000 	.word	0x20000000
 8000d70:	20000008 	.word	0x20000008

08000d74 <HAL_Init>:
 8000d74:	b508      	push	{r3, lr}
 8000d76:	2003      	movs	r0, #3
 8000d78:	f000 f81a 	bl	8000db0 <HAL_NVIC_SetPriorityGrouping>
 8000d7c:	2000      	movs	r0, #0
 8000d7e:	f7ff ffd5 	bl	8000d2c <HAL_InitTick>
 8000d82:	f7ff fe47 	bl	8000a14 <HAL_MspInit>
 8000d86:	2000      	movs	r0, #0
 8000d88:	bd08      	pop	{r3, pc}
	...

08000d8c <HAL_IncTick>:
 8000d8c:	4a03      	ldr	r2, [pc, #12]	; (8000d9c <HAL_IncTick+0x10>)
 8000d8e:	4b04      	ldr	r3, [pc, #16]	; (8000da0 <HAL_IncTick+0x14>)
 8000d90:	6811      	ldr	r1, [r2, #0]
 8000d92:	781b      	ldrb	r3, [r3, #0]
 8000d94:	440b      	add	r3, r1
 8000d96:	6013      	str	r3, [r2, #0]
 8000d98:	4770      	bx	lr
 8000d9a:	bf00      	nop
 8000d9c:	200002e4 	.word	0x200002e4
 8000da0:	20000004 	.word	0x20000004

08000da4 <HAL_GetTick>:
 8000da4:	4b01      	ldr	r3, [pc, #4]	; (8000dac <HAL_GetTick+0x8>)
 8000da6:	6818      	ldr	r0, [r3, #0]
 8000da8:	4770      	bx	lr
 8000daa:	bf00      	nop
 8000dac:	200002e4 	.word	0x200002e4

08000db0 <HAL_NVIC_SetPriorityGrouping>:
 8000db0:	4907      	ldr	r1, [pc, #28]	; (8000dd0 <HAL_NVIC_SetPriorityGrouping+0x20>)
 8000db2:	0203      	lsls	r3, r0, #8
 8000db4:	68ca      	ldr	r2, [r1, #12]
 8000db6:	f403 63e0 	and.w	r3, r3, #1792	; 0x700
 8000dba:	f422 62e0 	bic.w	r2, r2, #1792	; 0x700
 8000dbe:	0412      	lsls	r2, r2, #16
 8000dc0:	0c12      	lsrs	r2, r2, #16
 8000dc2:	4313      	orrs	r3, r2
 8000dc4:	f043 63bf 	orr.w	r3, r3, #100139008	; 0x5f80000
 8000dc8:	f443 3300 	orr.w	r3, r3, #131072	; 0x20000
 8000dcc:	60cb      	str	r3, [r1, #12]
 8000dce:	4770      	bx	lr
 8000dd0:	e000ed00 	.word	0xe000ed00

08000dd4 <HAL_NVIC_SetPriority>:
 8000dd4:	4b16      	ldr	r3, [pc, #88]	; (8000e30 <HAL_NVIC_SetPriority+0x5c>)
 8000dd6:	b530      	push	{r4, r5, lr}
 8000dd8:	68dc      	ldr	r4, [r3, #12]
 8000dda:	f3c4 2402 	ubfx	r4, r4, #8, #3
 8000dde:	f1c4 0307 	rsb	r3, r4, #7
 8000de2:	1d25      	adds	r5, r4, #4
 8000de4:	2b04      	cmp	r3, #4
 8000de6:	bf28      	it	cs
 8000de8:	2304      	movcs	r3, #4
 8000dea:	2d06      	cmp	r5, #6
 8000dec:	f04f 35ff 	mov.w	r5, #4294967295
 8000df0:	bf8c      	ite	hi
 8000df2:	3c03      	subhi	r4, #3
 8000df4:	2400      	movls	r4, #0
 8000df6:	fa05 f303 	lsl.w	r3, r5, r3
 8000dfa:	2800      	cmp	r0, #0
 8000dfc:	fa05 f504 	lsl.w	r5, r5, r4
 8000e00:	ea21 0303 	bic.w	r3, r1, r3
 8000e04:	ea22 0205 	bic.w	r2, r2, r5
 8000e08:	fa03 f304 	lsl.w	r3, r3, r4
 8000e0c:	ea43 0302 	orr.w	r3, r3, r2
 8000e10:	ea4f 1303 	mov.w	r3, r3, lsl #4
 8000e14:	b2db      	uxtb	r3, r3
 8000e16:	db06      	blt.n	8000e26 <HAL_NVIC_SetPriority+0x52>
 8000e18:	f100 4060 	add.w	r0, r0, #3758096384	; 0xe0000000
 8000e1c:	f500 4061 	add.w	r0, r0, #57600	; 0xe100
 8000e20:	f880 3300 	strb.w	r3, [r0, #768]	; 0x300
 8000e24:	bd30      	pop	{r4, r5, pc}
 8000e26:	f000 000f 	and.w	r0, r0, #15
 8000e2a:	4a02      	ldr	r2, [pc, #8]	; (8000e34 <HAL_NVIC_SetPriority+0x60>)
 8000e2c:	5413      	strb	r3, [r2, r0]
 8000e2e:	e7f9      	b.n	8000e24 <HAL_NVIC_SetPriority+0x50>
 8000e30:	e000ed00 	.word	0xe000ed00
 8000e34:	e000ed14 	.word	0xe000ed14

08000e38 <HAL_NVIC_EnableIRQ>:
 8000e38:	2800      	cmp	r0, #0
 8000e3a:	db07      	blt.n	8000e4c <HAL_NVIC_EnableIRQ+0x14>
 8000e3c:	0941      	lsrs	r1, r0, #5
 8000e3e:	2301      	movs	r3, #1
 8000e40:	f000 001f 	and.w	r0, r0, #31
 8000e44:	4a02      	ldr	r2, [pc, #8]	; (8000e50 <HAL_NVIC_EnableIRQ+0x18>)
 8000e46:	4083      	lsls	r3, r0
 8000e48:	f842 3021 	str.w	r3, [r2, r1, lsl #2]
 8000e4c:	4770      	bx	lr
 8000e4e:	bf00      	nop
 8000e50:	e000e100 	.word	0xe000e100

08000e54 <HAL_SYSTICK_Config>:
 8000e54:	3801      	subs	r0, #1
 8000e56:	f1b0 7f80 	cmp.w	r0, #16777216	; 0x1000000
 8000e5a:	d20b      	bcs.n	8000e74 <HAL_SYSTICK_Config+0x20>
 8000e5c:	f04f 23e0 	mov.w	r3, #3758153728	; 0xe000e000
 8000e60:	4a05      	ldr	r2, [pc, #20]	; (8000e78 <HAL_SYSTICK_Config+0x24>)
 8000e62:	21f0      	movs	r1, #240	; 0xf0
 8000e64:	6158      	str	r0, [r3, #20]
 8000e66:	2000      	movs	r0, #0
 8000e68:	f882 1023 	strb.w	r1, [r2, #35]	; 0x23
 8000e6c:	2207      	movs	r2, #7
 8000e6e:	6198      	str	r0, [r3, #24]
 8000e70:	611a      	str	r2, [r3, #16]
 8000e72:	4770      	bx	lr
 8000e74:	2001      	movs	r0, #1
 8000e76:	4770      	bx	lr
 8000e78:	e000ed00 	.word	0xe000ed00

08000e7c <DMA_CalcBaseAndBitshift>:
 8000e7c:	6803      	ldr	r3, [r0, #0]
 8000e7e:	2118      	movs	r1, #24
 8000e80:	b2da      	uxtb	r2, r3
 8000e82:	f423 737f 	bic.w	r3, r3, #1020	; 0x3fc
 8000e86:	3a10      	subs	r2, #16
 8000e88:	f023 0303 	bic.w	r3, r3, #3
 8000e8c:	fbb2 f1f1 	udiv	r1, r2, r1
 8000e90:	b510      	push	{r4, lr}
 8000e92:	2a5f      	cmp	r2, #95	; 0x5f
 8000e94:	4c03      	ldr	r4, [pc, #12]	; (8000ea4 <DMA_CalcBaseAndBitshift+0x28>)
 8000e96:	bf88      	it	hi
 8000e98:	3304      	addhi	r3, #4
 8000e9a:	5c61      	ldrb	r1, [r4, r1]
 8000e9c:	6583      	str	r3, [r0, #88]	; 0x58
 8000e9e:	65c1      	str	r1, [r0, #92]	; 0x5c
 8000ea0:	4618      	mov	r0, r3
 8000ea2:	bd10      	pop	{r4, pc}
 8000ea4:	0800571b 	.word	0x0800571b

08000ea8 <HAL_DMA_Init>:
 8000ea8:	b570      	push	{r4, r5, r6, lr}
 8000eaa:	4604      	mov	r4, r0
 8000eac:	f7ff ff7a 	bl	8000da4 <HAL_GetTick>
 8000eb0:	4605      	mov	r5, r0
 8000eb2:	2c00      	cmp	r4, #0
 8000eb4:	d071      	beq.n	8000f9a <HAL_DMA_Init+0xf2>
 8000eb6:	2300      	movs	r3, #0
 8000eb8:	6822      	ldr	r2, [r4, #0]
 8000eba:	f884 3034 	strb.w	r3, [r4, #52]	; 0x34
 8000ebe:	2302      	movs	r3, #2
 8000ec0:	f884 3035 	strb.w	r3, [r4, #53]	; 0x35
 8000ec4:	6813      	ldr	r3, [r2, #0]
 8000ec6:	f023 0301 	bic.w	r3, r3, #1
 8000eca:	6013      	str	r3, [r2, #0]
 8000ecc:	6822      	ldr	r2, [r4, #0]
 8000ece:	6813      	ldr	r3, [r2, #0]
 8000ed0:	07d8      	lsls	r0, r3, #31
 8000ed2:	d42e      	bmi.n	8000f32 <HAL_DMA_Init+0x8a>
 8000ed4:	6813      	ldr	r3, [r2, #0]
 8000ed6:	4832      	ldr	r0, [pc, #200]	; (8000fa0 <HAL_DMA_Init+0xf8>)
 8000ed8:	69a1      	ldr	r1, [r4, #24]
 8000eda:	4018      	ands	r0, r3
 8000edc:	e9d4 3501 	ldrd	r3, r5, [r4, #4]
 8000ee0:	432b      	orrs	r3, r5
 8000ee2:	68e5      	ldr	r5, [r4, #12]
 8000ee4:	432b      	orrs	r3, r5
 8000ee6:	6925      	ldr	r5, [r4, #16]
 8000ee8:	432b      	orrs	r3, r5
 8000eea:	6965      	ldr	r5, [r4, #20]
 8000eec:	432b      	orrs	r3, r5
 8000eee:	69e5      	ldr	r5, [r4, #28]
 8000ef0:	430b      	orrs	r3, r1
 8000ef2:	432b      	orrs	r3, r5
 8000ef4:	6a25      	ldr	r5, [r4, #32]
 8000ef6:	432b      	orrs	r3, r5
 8000ef8:	4303      	orrs	r3, r0
 8000efa:	6a60      	ldr	r0, [r4, #36]	; 0x24
 8000efc:	2804      	cmp	r0, #4
 8000efe:	bf02      	ittt	eq
 8000f00:	e9d4 560b 	ldrdeq	r5, r6, [r4, #44]	; 0x2c
 8000f04:	4335      	orreq	r5, r6
 8000f06:	432b      	orreq	r3, r5
 8000f08:	2804      	cmp	r0, #4
 8000f0a:	6013      	str	r3, [r2, #0]
 8000f0c:	6953      	ldr	r3, [r2, #20]
 8000f0e:	f023 0307 	bic.w	r3, r3, #7
 8000f12:	ea43 0300 	orr.w	r3, r3, r0
 8000f16:	d132      	bne.n	8000f7e <HAL_DMA_Init+0xd6>
 8000f18:	6aa0      	ldr	r0, [r4, #40]	; 0x28
 8000f1a:	6ae5      	ldr	r5, [r4, #44]	; 0x2c
 8000f1c:	4303      	orrs	r3, r0
 8000f1e:	b375      	cbz	r5, 8000f7e <HAL_DMA_Init+0xd6>
 8000f20:	b991      	cbnz	r1, 8000f48 <HAL_DMA_Init+0xa0>
 8000f22:	2801      	cmp	r0, #1
 8000f24:	d020      	beq.n	8000f68 <HAL_DMA_Init+0xc0>
 8000f26:	f030 0102 	bics.w	r1, r0, #2
 8000f2a:	d128      	bne.n	8000f7e <HAL_DMA_Init+0xd6>
 8000f2c:	01e9      	lsls	r1, r5, #7
 8000f2e:	d526      	bpl.n	8000f7e <HAL_DMA_Init+0xd6>
 8000f30:	e01d      	b.n	8000f6e <HAL_DMA_Init+0xc6>
 8000f32:	f7ff ff37 	bl	8000da4 <HAL_GetTick>
 8000f36:	1b40      	subs	r0, r0, r5
 8000f38:	2805      	cmp	r0, #5
 8000f3a:	d9c7      	bls.n	8000ecc <HAL_DMA_Init+0x24>
 8000f3c:	2320      	movs	r3, #32
 8000f3e:	2003      	movs	r0, #3
 8000f40:	6563      	str	r3, [r4, #84]	; 0x54
 8000f42:	f884 0035 	strb.w	r0, [r4, #53]	; 0x35
 8000f46:	bd70      	pop	{r4, r5, r6, pc}
 8000f48:	f5b1 5f00 	cmp.w	r1, #8192	; 0x2000
 8000f4c:	d113      	bne.n	8000f76 <HAL_DMA_Init+0xce>
 8000f4e:	2803      	cmp	r0, #3
 8000f50:	d815      	bhi.n	8000f7e <HAL_DMA_Init+0xd6>
 8000f52:	a101      	add	r1, pc, #4	; (adr r1, 8000f58 <HAL_DMA_Init+0xb0>)
 8000f54:	f851 f020 	ldr.w	pc, [r1, r0, lsl #2]
 8000f58:	08000f6f 	.word	0x08000f6f
 8000f5c:	08000f2d 	.word	0x08000f2d
 8000f60:	08000f6f 	.word	0x08000f6f
 8000f64:	08000f69 	.word	0x08000f69
 8000f68:	f1b5 7fc0 	cmp.w	r5, #25165824	; 0x1800000
 8000f6c:	d107      	bne.n	8000f7e <HAL_DMA_Init+0xd6>
 8000f6e:	2340      	movs	r3, #64	; 0x40
 8000f70:	2001      	movs	r0, #1
 8000f72:	6563      	str	r3, [r4, #84]	; 0x54
 8000f74:	e7e5      	b.n	8000f42 <HAL_DMA_Init+0x9a>
 8000f76:	2802      	cmp	r0, #2
 8000f78:	d9f9      	bls.n	8000f6e <HAL_DMA_Init+0xc6>
 8000f7a:	2803      	cmp	r0, #3
 8000f7c:	d0d6      	beq.n	8000f2c <HAL_DMA_Init+0x84>
 8000f7e:	6153      	str	r3, [r2, #20]
 8000f80:	4620      	mov	r0, r4
 8000f82:	f7ff ff7b 	bl	8000e7c <DMA_CalcBaseAndBitshift>
 8000f86:	6de2      	ldr	r2, [r4, #92]	; 0x5c
 8000f88:	233f      	movs	r3, #63	; 0x3f
 8000f8a:	4093      	lsls	r3, r2
 8000f8c:	6083      	str	r3, [r0, #8]
 8000f8e:	2000      	movs	r0, #0
 8000f90:	2301      	movs	r3, #1
 8000f92:	6560      	str	r0, [r4, #84]	; 0x54
 8000f94:	f884 3035 	strb.w	r3, [r4, #53]	; 0x35
 8000f98:	e7d5      	b.n	8000f46 <HAL_DMA_Init+0x9e>
 8000f9a:	2001      	movs	r0, #1
 8000f9c:	e7d3      	b.n	8000f46 <HAL_DMA_Init+0x9e>
 8000f9e:	bf00      	nop
 8000fa0:	e010803f 	.word	0xe010803f

08000fa4 <HAL_DMA_Start_IT>:
 8000fa4:	b570      	push	{r4, r5, r6, lr}
 8000fa6:	f890 4034 	ldrb.w	r4, [r0, #52]	; 0x34
 8000faa:	6d86      	ldr	r6, [r0, #88]	; 0x58
 8000fac:	2c01      	cmp	r4, #1
 8000fae:	d034      	beq.n	800101a <HAL_DMA_Start_IT+0x76>
 8000fb0:	2401      	movs	r4, #1
 8000fb2:	2500      	movs	r5, #0
 8000fb4:	f880 4034 	strb.w	r4, [r0, #52]	; 0x34
 8000fb8:	f890 4035 	ldrb.w	r4, [r0, #53]	; 0x35
 8000fbc:	2c01      	cmp	r4, #1
 8000fbe:	f04f 0402 	mov.w	r4, #2
 8000fc2:	d128      	bne.n	8001016 <HAL_DMA_Start_IT+0x72>
 8000fc4:	f880 4035 	strb.w	r4, [r0, #53]	; 0x35
 8000fc8:	6804      	ldr	r4, [r0, #0]
 8000fca:	6545      	str	r5, [r0, #84]	; 0x54
 8000fcc:	6825      	ldr	r5, [r4, #0]
 8000fce:	f425 2580 	bic.w	r5, r5, #262144	; 0x40000
 8000fd2:	6025      	str	r5, [r4, #0]
 8000fd4:	6063      	str	r3, [r4, #4]
 8000fd6:	6883      	ldr	r3, [r0, #8]
 8000fd8:	2b40      	cmp	r3, #64	; 0x40
 8000fda:	d119      	bne.n	8001010 <HAL_DMA_Start_IT+0x6c>
 8000fdc:	60a2      	str	r2, [r4, #8]
 8000fde:	60e1      	str	r1, [r4, #12]
 8000fe0:	6dc2      	ldr	r2, [r0, #92]	; 0x5c
 8000fe2:	233f      	movs	r3, #63	; 0x3f
 8000fe4:	4093      	lsls	r3, r2
 8000fe6:	60b3      	str	r3, [r6, #8]
 8000fe8:	6823      	ldr	r3, [r4, #0]
 8000fea:	f043 0316 	orr.w	r3, r3, #22
 8000fee:	6023      	str	r3, [r4, #0]
 8000ff0:	6963      	ldr	r3, [r4, #20]
 8000ff2:	f043 0380 	orr.w	r3, r3, #128	; 0x80
 8000ff6:	6163      	str	r3, [r4, #20]
 8000ff8:	6c03      	ldr	r3, [r0, #64]	; 0x40
 8000ffa:	b11b      	cbz	r3, 8001004 <HAL_DMA_Start_IT+0x60>
 8000ffc:	6823      	ldr	r3, [r4, #0]
 8000ffe:	f043 0308 	orr.w	r3, r3, #8
 8001002:	6023      	str	r3, [r4, #0]
 8001004:	6823      	ldr	r3, [r4, #0]
 8001006:	2000      	movs	r0, #0
 8001008:	f043 0301 	orr.w	r3, r3, #1
 800100c:	6023      	str	r3, [r4, #0]
 800100e:	bd70      	pop	{r4, r5, r6, pc}
 8001010:	60a1      	str	r1, [r4, #8]
 8001012:	60e2      	str	r2, [r4, #12]
 8001014:	e7e4      	b.n	8000fe0 <HAL_DMA_Start_IT+0x3c>
 8001016:	f880 5034 	strb.w	r5, [r0, #52]	; 0x34
 800101a:	2002      	movs	r0, #2
 800101c:	e7f7      	b.n	800100e <HAL_DMA_Start_IT+0x6a>

0800101e <HAL_DMA_Abort>:
 800101e:	b570      	push	{r4, r5, r6, lr}
 8001020:	4604      	mov	r4, r0
 8001022:	6d86      	ldr	r6, [r0, #88]	; 0x58
 8001024:	f7ff febe 	bl	8000da4 <HAL_GetTick>
 8001028:	4605      	mov	r5, r0
 800102a:	f894 3035 	ldrb.w	r3, [r4, #53]	; 0x35
 800102e:	2b02      	cmp	r3, #2
 8001030:	d006      	beq.n	8001040 <HAL_DMA_Abort+0x22>
 8001032:	2380      	movs	r3, #128	; 0x80
 8001034:	2001      	movs	r0, #1
 8001036:	6563      	str	r3, [r4, #84]	; 0x54
 8001038:	2300      	movs	r3, #0
 800103a:	f884 3034 	strb.w	r3, [r4, #52]	; 0x34
 800103e:	bd70      	pop	{r4, r5, r6, pc}
 8001040:	6823      	ldr	r3, [r4, #0]
 8001042:	681a      	ldr	r2, [r3, #0]
 8001044:	f022 0216 	bic.w	r2, r2, #22
 8001048:	601a      	str	r2, [r3, #0]
 800104a:	695a      	ldr	r2, [r3, #20]
 800104c:	f022 0280 	bic.w	r2, r2, #128	; 0x80
 8001050:	615a      	str	r2, [r3, #20]
 8001052:	6c22      	ldr	r2, [r4, #64]	; 0x40
 8001054:	b90a      	cbnz	r2, 800105a <HAL_DMA_Abort+0x3c>
 8001056:	6ca2      	ldr	r2, [r4, #72]	; 0x48
 8001058:	b11a      	cbz	r2, 8001062 <HAL_DMA_Abort+0x44>
 800105a:	681a      	ldr	r2, [r3, #0]
 800105c:	f022 0208 	bic.w	r2, r2, #8
 8001060:	601a      	str	r2, [r3, #0]
 8001062:	681a      	ldr	r2, [r3, #0]
 8001064:	f022 0201 	bic.w	r2, r2, #1
 8001068:	601a      	str	r2, [r3, #0]
 800106a:	6823      	ldr	r3, [r4, #0]
 800106c:	681b      	ldr	r3, [r3, #0]
 800106e:	f013 0301 	ands.w	r3, r3, #1
 8001072:	d10a      	bne.n	800108a <HAL_DMA_Abort+0x6c>
 8001074:	6de1      	ldr	r1, [r4, #92]	; 0x5c
 8001076:	223f      	movs	r2, #63	; 0x3f
 8001078:	4618      	mov	r0, r3
 800107a:	408a      	lsls	r2, r1
 800107c:	60b2      	str	r2, [r6, #8]
 800107e:	2201      	movs	r2, #1
 8001080:	f884 3034 	strb.w	r3, [r4, #52]	; 0x34
 8001084:	f884 2035 	strb.w	r2, [r4, #53]	; 0x35
 8001088:	e7d9      	b.n	800103e <HAL_DMA_Abort+0x20>
 800108a:	f7ff fe8b 	bl	8000da4 <HAL_GetTick>
 800108e:	1b40      	subs	r0, r0, r5
 8001090:	2805      	cmp	r0, #5
 8001092:	d9ea      	bls.n	800106a <HAL_DMA_Abort+0x4c>
 8001094:	2320      	movs	r3, #32
 8001096:	2003      	movs	r0, #3
 8001098:	6563      	str	r3, [r4, #84]	; 0x54
 800109a:	2300      	movs	r3, #0
 800109c:	f884 0035 	strb.w	r0, [r4, #53]	; 0x35
 80010a0:	f884 3034 	strb.w	r3, [r4, #52]	; 0x34
 80010a4:	e7cb      	b.n	800103e <HAL_DMA_Abort+0x20>

080010a6 <HAL_DMA_Abort_IT>:
 80010a6:	f890 3035 	ldrb.w	r3, [r0, #53]	; 0x35
 80010aa:	2b02      	cmp	r3, #2
 80010ac:	d003      	beq.n	80010b6 <HAL_DMA_Abort_IT+0x10>
 80010ae:	2380      	movs	r3, #128	; 0x80
 80010b0:	6543      	str	r3, [r0, #84]	; 0x54
 80010b2:	2001      	movs	r0, #1
 80010b4:	4770      	bx	lr
 80010b6:	6802      	ldr	r2, [r0, #0]
 80010b8:	2305      	movs	r3, #5
 80010ba:	f880 3035 	strb.w	r3, [r0, #53]	; 0x35
 80010be:	2000      	movs	r0, #0
 80010c0:	6813      	ldr	r3, [r2, #0]
 80010c2:	f023 0301 	bic.w	r3, r3, #1
 80010c6:	6013      	str	r3, [r2, #0]
 80010c8:	4770      	bx	lr
	...

080010cc <HAL_DMA_IRQHandler>:
 80010cc:	2300      	movs	r3, #0
 80010ce:	b5f7      	push	{r0, r1, r2, r4, r5, r6, r7, lr}
 80010d0:	9301      	str	r3, [sp, #4]
 80010d2:	2208      	movs	r2, #8
 80010d4:	4b5b      	ldr	r3, [pc, #364]	; (8001244 <HAL_DMA_IRQHandler+0x178>)
 80010d6:	4604      	mov	r4, r0
 80010d8:	6d85      	ldr	r5, [r0, #88]	; 0x58
 80010da:	681f      	ldr	r7, [r3, #0]
 80010dc:	6dc3      	ldr	r3, [r0, #92]	; 0x5c
 80010de:	682e      	ldr	r6, [r5, #0]
 80010e0:	409a      	lsls	r2, r3
 80010e2:	4232      	tst	r2, r6
 80010e4:	d00c      	beq.n	8001100 <HAL_DMA_IRQHandler+0x34>
 80010e6:	6801      	ldr	r1, [r0, #0]
 80010e8:	6808      	ldr	r0, [r1, #0]
 80010ea:	0740      	lsls	r0, r0, #29
 80010ec:	d508      	bpl.n	8001100 <HAL_DMA_IRQHandler+0x34>
 80010ee:	6808      	ldr	r0, [r1, #0]
 80010f0:	f020 0004 	bic.w	r0, r0, #4
 80010f4:	6008      	str	r0, [r1, #0]
 80010f6:	60aa      	str	r2, [r5, #8]
 80010f8:	6d62      	ldr	r2, [r4, #84]	; 0x54
 80010fa:	f042 0201 	orr.w	r2, r2, #1
 80010fe:	6562      	str	r2, [r4, #84]	; 0x54
 8001100:	2201      	movs	r2, #1
 8001102:	409a      	lsls	r2, r3
 8001104:	4232      	tst	r2, r6
 8001106:	d008      	beq.n	800111a <HAL_DMA_IRQHandler+0x4e>
 8001108:	6821      	ldr	r1, [r4, #0]
 800110a:	6949      	ldr	r1, [r1, #20]
 800110c:	0609      	lsls	r1, r1, #24
 800110e:	d504      	bpl.n	800111a <HAL_DMA_IRQHandler+0x4e>
 8001110:	60aa      	str	r2, [r5, #8]
 8001112:	6d62      	ldr	r2, [r4, #84]	; 0x54
 8001114:	f042 0202 	orr.w	r2, r2, #2
 8001118:	6562      	str	r2, [r4, #84]	; 0x54
 800111a:	2204      	movs	r2, #4
 800111c:	409a      	lsls	r2, r3
 800111e:	4232      	tst	r2, r6
 8001120:	d008      	beq.n	8001134 <HAL_DMA_IRQHandler+0x68>
 8001122:	6821      	ldr	r1, [r4, #0]
 8001124:	6809      	ldr	r1, [r1, #0]
 8001126:	0788      	lsls	r0, r1, #30
 8001128:	d504      	bpl.n	8001134 <HAL_DMA_IRQHandler+0x68>
 800112a:	60aa      	str	r2, [r5, #8]
 800112c:	6d62      	ldr	r2, [r4, #84]	; 0x54
 800112e:	f042 0204 	orr.w	r2, r2, #4
 8001132:	6562      	str	r2, [r4, #84]	; 0x54
 8001134:	2210      	movs	r2, #16
 8001136:	409a      	lsls	r2, r3
 8001138:	4232      	tst	r2, r6
 800113a:	d010      	beq.n	800115e <HAL_DMA_IRQHandler+0x92>
 800113c:	6823      	ldr	r3, [r4, #0]
 800113e:	6819      	ldr	r1, [r3, #0]
 8001140:	0709      	lsls	r1, r1, #28
 8001142:	d50c      	bpl.n	800115e <HAL_DMA_IRQHandler+0x92>
 8001144:	60aa      	str	r2, [r5, #8]
 8001146:	681a      	ldr	r2, [r3, #0]
 8001148:	0350      	lsls	r0, r2, #13
 800114a:	d537      	bpl.n	80011bc <HAL_DMA_IRQHandler+0xf0>
 800114c:	681b      	ldr	r3, [r3, #0]
 800114e:	0319      	lsls	r1, r3, #12
 8001150:	d401      	bmi.n	8001156 <HAL_DMA_IRQHandler+0x8a>
 8001152:	6c23      	ldr	r3, [r4, #64]	; 0x40
 8001154:	e000      	b.n	8001158 <HAL_DMA_IRQHandler+0x8c>
 8001156:	6ca3      	ldr	r3, [r4, #72]	; 0x48
 8001158:	b10b      	cbz	r3, 800115e <HAL_DMA_IRQHandler+0x92>
 800115a:	4620      	mov	r0, r4
 800115c:	4798      	blx	r3
 800115e:	6de1      	ldr	r1, [r4, #92]	; 0x5c
 8001160:	2220      	movs	r2, #32
 8001162:	408a      	lsls	r2, r1
 8001164:	4232      	tst	r2, r6
 8001166:	d03a      	beq.n	80011de <HAL_DMA_IRQHandler+0x112>
 8001168:	6823      	ldr	r3, [r4, #0]
 800116a:	6818      	ldr	r0, [r3, #0]
 800116c:	06c6      	lsls	r6, r0, #27
 800116e:	d536      	bpl.n	80011de <HAL_DMA_IRQHandler+0x112>
 8001170:	60aa      	str	r2, [r5, #8]
 8001172:	f894 2035 	ldrb.w	r2, [r4, #53]	; 0x35
 8001176:	2a05      	cmp	r2, #5
 8001178:	681a      	ldr	r2, [r3, #0]
 800117a:	d127      	bne.n	80011cc <HAL_DMA_IRQHandler+0x100>
 800117c:	f022 0216 	bic.w	r2, r2, #22
 8001180:	601a      	str	r2, [r3, #0]
 8001182:	695a      	ldr	r2, [r3, #20]
 8001184:	f022 0280 	bic.w	r2, r2, #128	; 0x80
 8001188:	615a      	str	r2, [r3, #20]
 800118a:	6c22      	ldr	r2, [r4, #64]	; 0x40
 800118c:	b90a      	cbnz	r2, 8001192 <HAL_DMA_IRQHandler+0xc6>
 800118e:	6ca2      	ldr	r2, [r4, #72]	; 0x48
 8001190:	b11a      	cbz	r2, 800119a <HAL_DMA_IRQHandler+0xce>
 8001192:	681a      	ldr	r2, [r3, #0]
 8001194:	f022 0208 	bic.w	r2, r2, #8
 8001198:	601a      	str	r2, [r3, #0]
 800119a:	233f      	movs	r3, #63	; 0x3f
 800119c:	408b      	lsls	r3, r1
 800119e:	60ab      	str	r3, [r5, #8]
 80011a0:	2300      	movs	r3, #0
 80011a2:	f884 3034 	strb.w	r3, [r4, #52]	; 0x34
 80011a6:	2301      	movs	r3, #1
 80011a8:	f884 3035 	strb.w	r3, [r4, #53]	; 0x35
 80011ac:	6d23      	ldr	r3, [r4, #80]	; 0x50
 80011ae:	2b00      	cmp	r3, #0
 80011b0:	d045      	beq.n	800123e <HAL_DMA_IRQHandler+0x172>
 80011b2:	4620      	mov	r0, r4
 80011b4:	b003      	add	sp, #12
 80011b6:	e8bd 40f0 	ldmia.w	sp!, {r4, r5, r6, r7, lr}
 80011ba:	4718      	bx	r3
 80011bc:	681a      	ldr	r2, [r3, #0]
 80011be:	05d2      	lsls	r2, r2, #23
 80011c0:	d4c7      	bmi.n	8001152 <HAL_DMA_IRQHandler+0x86>
 80011c2:	681a      	ldr	r2, [r3, #0]
 80011c4:	f022 0208 	bic.w	r2, r2, #8
 80011c8:	601a      	str	r2, [r3, #0]
 80011ca:	e7c2      	b.n	8001152 <HAL_DMA_IRQHandler+0x86>
 80011cc:	0350      	lsls	r0, r2, #13
 80011ce:	d527      	bpl.n	8001220 <HAL_DMA_IRQHandler+0x154>
 80011d0:	681b      	ldr	r3, [r3, #0]
 80011d2:	0319      	lsls	r1, r3, #12
 80011d4:	d431      	bmi.n	800123a <HAL_DMA_IRQHandler+0x16e>
 80011d6:	6c63      	ldr	r3, [r4, #68]	; 0x44
 80011d8:	b10b      	cbz	r3, 80011de <HAL_DMA_IRQHandler+0x112>
 80011da:	4620      	mov	r0, r4
 80011dc:	4798      	blx	r3
 80011de:	6d63      	ldr	r3, [r4, #84]	; 0x54
 80011e0:	b36b      	cbz	r3, 800123e <HAL_DMA_IRQHandler+0x172>
 80011e2:	6d63      	ldr	r3, [r4, #84]	; 0x54
 80011e4:	07da      	lsls	r2, r3, #31
 80011e6:	d519      	bpl.n	800121c <HAL_DMA_IRQHandler+0x150>
 80011e8:	f44f 5316 	mov.w	r3, #9600	; 0x2580
 80011ec:	6822      	ldr	r2, [r4, #0]
 80011ee:	fbb7 f7f3 	udiv	r7, r7, r3
 80011f2:	2305      	movs	r3, #5
 80011f4:	f884 3035 	strb.w	r3, [r4, #53]	; 0x35
 80011f8:	6813      	ldr	r3, [r2, #0]
 80011fa:	f023 0301 	bic.w	r3, r3, #1
 80011fe:	6013      	str	r3, [r2, #0]
 8001200:	9b01      	ldr	r3, [sp, #4]
 8001202:	3301      	adds	r3, #1
 8001204:	42bb      	cmp	r3, r7
 8001206:	9301      	str	r3, [sp, #4]
 8001208:	d802      	bhi.n	8001210 <HAL_DMA_IRQHandler+0x144>
 800120a:	6813      	ldr	r3, [r2, #0]
 800120c:	07db      	lsls	r3, r3, #31
 800120e:	d4f7      	bmi.n	8001200 <HAL_DMA_IRQHandler+0x134>
 8001210:	2300      	movs	r3, #0
 8001212:	f884 3034 	strb.w	r3, [r4, #52]	; 0x34
 8001216:	2301      	movs	r3, #1
 8001218:	f884 3035 	strb.w	r3, [r4, #53]	; 0x35
 800121c:	6ce3      	ldr	r3, [r4, #76]	; 0x4c
 800121e:	e7c6      	b.n	80011ae <HAL_DMA_IRQHandler+0xe2>
 8001220:	681a      	ldr	r2, [r3, #0]
 8001222:	f412 7280 	ands.w	r2, r2, #256	; 0x100
 8001226:	d108      	bne.n	800123a <HAL_DMA_IRQHandler+0x16e>
 8001228:	6819      	ldr	r1, [r3, #0]
 800122a:	f021 0110 	bic.w	r1, r1, #16
 800122e:	6019      	str	r1, [r3, #0]
 8001230:	2301      	movs	r3, #1
 8001232:	f884 2034 	strb.w	r2, [r4, #52]	; 0x34
 8001236:	f884 3035 	strb.w	r3, [r4, #53]	; 0x35
 800123a:	6be3      	ldr	r3, [r4, #60]	; 0x3c
 800123c:	e7cc      	b.n	80011d8 <HAL_DMA_IRQHandler+0x10c>
 800123e:	b003      	add	sp, #12
 8001240:	bdf0      	pop	{r4, r5, r6, r7, pc}
 8001242:	bf00      	nop
 8001244:	20000000 	.word	0x20000000

08001248 <HAL_DMA_GetError>:
 8001248:	6d40      	ldr	r0, [r0, #84]	; 0x54
 800124a:	4770      	bx	lr

0800124c <HAL_GPIO_Init>:
 800124c:	e92d 4ff7 	stmdb	sp!, {r0, r1, r2, r4, r5, r6, r7, r8, r9, sl, fp, lr}
 8001250:	2300      	movs	r3, #0
 8001252:	f8df 81b4 	ldr.w	r8, [pc, #436]	; 8001408 <HAL_GPIO_Init+0x1bc>
 8001256:	4a6a      	ldr	r2, [pc, #424]	; (8001400 <HAL_GPIO_Init+0x1b4>)
 8001258:	f8df 91b0 	ldr.w	r9, [pc, #432]	; 800140c <HAL_GPIO_Init+0x1c0>
 800125c:	2401      	movs	r4, #1
 800125e:	680d      	ldr	r5, [r1, #0]
 8001260:	409c      	lsls	r4, r3
 8001262:	ea04 0605 	and.w	r6, r4, r5
 8001266:	43ac      	bics	r4, r5
 8001268:	f040 80b1 	bne.w	80013ce <HAL_GPIO_Init+0x182>
 800126c:	684c      	ldr	r4, [r1, #4]
 800126e:	ea4f 0e43 	mov.w	lr, r3, lsl #1
 8001272:	2503      	movs	r5, #3
 8001274:	f024 0c10 	bic.w	ip, r4, #16
 8001278:	fa05 f50e 	lsl.w	r5, r5, lr
 800127c:	f10c 37ff 	add.w	r7, ip, #4294967295
 8001280:	43ed      	mvns	r5, r5
 8001282:	2f01      	cmp	r7, #1
 8001284:	d810      	bhi.n	80012a8 <HAL_GPIO_Init+0x5c>
 8001286:	6887      	ldr	r7, [r0, #8]
 8001288:	ea07 0a05 	and.w	sl, r7, r5
 800128c:	68cf      	ldr	r7, [r1, #12]
 800128e:	fa07 f70e 	lsl.w	r7, r7, lr
 8001292:	ea47 070a 	orr.w	r7, r7, sl
 8001296:	6087      	str	r7, [r0, #8]
 8001298:	6847      	ldr	r7, [r0, #4]
 800129a:	ea27 0a06 	bic.w	sl, r7, r6
 800129e:	0927      	lsrs	r7, r4, #4
 80012a0:	409f      	lsls	r7, r3
 80012a2:	ea47 070a 	orr.w	r7, r7, sl
 80012a6:	6047      	str	r7, [r0, #4]
 80012a8:	68c7      	ldr	r7, [r0, #12]
 80012aa:	f1bc 0f02 	cmp.w	ip, #2
 80012ae:	ea07 0a05 	and.w	sl, r7, r5
 80012b2:	688f      	ldr	r7, [r1, #8]
 80012b4:	fa07 f70e 	lsl.w	r7, r7, lr
 80012b8:	ea47 070a 	orr.w	r7, r7, sl
 80012bc:	60c7      	str	r7, [r0, #12]
 80012be:	d116      	bne.n	80012ee <HAL_GPIO_Init+0xa2>
 80012c0:	ea4f 0ad3 	mov.w	sl, r3, lsr #3
 80012c4:	f003 0b07 	and.w	fp, r3, #7
 80012c8:	f04f 0c0f 	mov.w	ip, #15
 80012cc:	eb00 0a8a 	add.w	sl, r0, sl, lsl #2
 80012d0:	ea4f 0b8b 	mov.w	fp, fp, lsl #2
 80012d4:	f8da 7020 	ldr.w	r7, [sl, #32]
 80012d8:	fa0c fc0b 	lsl.w	ip, ip, fp
 80012dc:	ea27 0c0c 	bic.w	ip, r7, ip
 80012e0:	690f      	ldr	r7, [r1, #16]
 80012e2:	fa07 f70b 	lsl.w	r7, r7, fp
 80012e6:	ea47 070c 	orr.w	r7, r7, ip
 80012ea:	f8ca 7020 	str.w	r7, [sl, #32]
 80012ee:	6807      	ldr	r7, [r0, #0]
 80012f0:	402f      	ands	r7, r5
 80012f2:	f004 0503 	and.w	r5, r4, #3
 80012f6:	fa05 f50e 	lsl.w	r5, r5, lr
 80012fa:	433d      	orrs	r5, r7
 80012fc:	6005      	str	r5, [r0, #0]
 80012fe:	00e5      	lsls	r5, r4, #3
 8001300:	d565      	bpl.n	80013ce <HAL_GPIO_Init+0x182>
 8001302:	f8d8 5044 	ldr.w	r5, [r8, #68]	; 0x44
 8001306:	f023 0703 	bic.w	r7, r3, #3
 800130a:	f003 0c03 	and.w	ip, r3, #3
 800130e:	f445 4580 	orr.w	r5, r5, #16384	; 0x4000
 8001312:	f107 4780 	add.w	r7, r7, #1073741824	; 0x40000000
 8001316:	ea4f 0c8c 	mov.w	ip, ip, lsl #2
 800131a:	f8c8 5044 	str.w	r5, [r8, #68]	; 0x44
 800131e:	f507 379c 	add.w	r7, r7, #79872	; 0x13800
 8001322:	f8d8 5044 	ldr.w	r5, [r8, #68]	; 0x44
 8001326:	f405 4580 	and.w	r5, r5, #16384	; 0x4000
 800132a:	9501      	str	r5, [sp, #4]
 800132c:	9d01      	ldr	r5, [sp, #4]
 800132e:	250f      	movs	r5, #15
 8001330:	f8d7 e008 	ldr.w	lr, [r7, #8]
 8001334:	fa05 f50c 	lsl.w	r5, r5, ip
 8001338:	ea2e 0e05 	bic.w	lr, lr, r5
 800133c:	4d31      	ldr	r5, [pc, #196]	; (8001404 <HAL_GPIO_Init+0x1b8>)
 800133e:	42a8      	cmp	r0, r5
 8001340:	d04c      	beq.n	80013dc <HAL_GPIO_Init+0x190>
 8001342:	f505 6580 	add.w	r5, r5, #1024	; 0x400
 8001346:	42a8      	cmp	r0, r5
 8001348:	d04a      	beq.n	80013e0 <HAL_GPIO_Init+0x194>
 800134a:	f505 6580 	add.w	r5, r5, #1024	; 0x400
 800134e:	42a8      	cmp	r0, r5
 8001350:	d048      	beq.n	80013e4 <HAL_GPIO_Init+0x198>
 8001352:	f505 6580 	add.w	r5, r5, #1024	; 0x400
 8001356:	42a8      	cmp	r0, r5
 8001358:	d046      	beq.n	80013e8 <HAL_GPIO_Init+0x19c>
 800135a:	f505 6580 	add.w	r5, r5, #1024	; 0x400
 800135e:	42a8      	cmp	r0, r5
 8001360:	d044      	beq.n	80013ec <HAL_GPIO_Init+0x1a0>
 8001362:	4548      	cmp	r0, r9
 8001364:	d044      	beq.n	80013f0 <HAL_GPIO_Init+0x1a4>
 8001366:	f505 6500 	add.w	r5, r5, #2048	; 0x800
 800136a:	42a8      	cmp	r0, r5
 800136c:	d042      	beq.n	80013f4 <HAL_GPIO_Init+0x1a8>
 800136e:	f505 6580 	add.w	r5, r5, #1024	; 0x400
 8001372:	42a8      	cmp	r0, r5
 8001374:	d040      	beq.n	80013f8 <HAL_GPIO_Init+0x1ac>
 8001376:	f505 6580 	add.w	r5, r5, #1024	; 0x400
 800137a:	42a8      	cmp	r0, r5
 800137c:	d03e      	beq.n	80013fc <HAL_GPIO_Init+0x1b0>
 800137e:	f505 6580 	add.w	r5, r5, #1024	; 0x400
 8001382:	42a8      	cmp	r0, r5
 8001384:	bf0c      	ite	eq
 8001386:	2509      	moveq	r5, #9
 8001388:	250a      	movne	r5, #10
 800138a:	fa05 f50c 	lsl.w	r5, r5, ip
 800138e:	f414 3f80 	tst.w	r4, #65536	; 0x10000
 8001392:	ea45 050e 	orr.w	r5, r5, lr
 8001396:	60bd      	str	r5, [r7, #8]
 8001398:	ea6f 0706 	mvn.w	r7, r6
 800139c:	6815      	ldr	r5, [r2, #0]
 800139e:	bf0c      	ite	eq
 80013a0:	403d      	andeq	r5, r7
 80013a2:	4335      	orrne	r5, r6
 80013a4:	f414 3f00 	tst.w	r4, #131072	; 0x20000
 80013a8:	6015      	str	r5, [r2, #0]
 80013aa:	6855      	ldr	r5, [r2, #4]
 80013ac:	bf0c      	ite	eq
 80013ae:	403d      	andeq	r5, r7
 80013b0:	4335      	orrne	r5, r6
 80013b2:	f414 1f80 	tst.w	r4, #1048576	; 0x100000
 80013b6:	6055      	str	r5, [r2, #4]
 80013b8:	6895      	ldr	r5, [r2, #8]
 80013ba:	bf0c      	ite	eq
 80013bc:	403d      	andeq	r5, r7
 80013be:	4335      	orrne	r5, r6
 80013c0:	02a4      	lsls	r4, r4, #10
 80013c2:	6095      	str	r5, [r2, #8]
 80013c4:	68d5      	ldr	r5, [r2, #12]
 80013c6:	bf54      	ite	pl
 80013c8:	403d      	andpl	r5, r7
 80013ca:	4335      	orrmi	r5, r6
 80013cc:	60d5      	str	r5, [r2, #12]
 80013ce:	3301      	adds	r3, #1
 80013d0:	2b10      	cmp	r3, #16
 80013d2:	f47f af43 	bne.w	800125c <HAL_GPIO_Init+0x10>
 80013d6:	b003      	add	sp, #12
 80013d8:	e8bd 8ff0 	ldmia.w	sp!, {r4, r5, r6, r7, r8, r9, sl, fp, pc}
 80013dc:	2500      	movs	r5, #0
 80013de:	e7d4      	b.n	800138a <HAL_GPIO_Init+0x13e>
 80013e0:	2501      	movs	r5, #1
 80013e2:	e7d2      	b.n	800138a <HAL_GPIO_Init+0x13e>
 80013e4:	2502      	movs	r5, #2
 80013e6:	e7d0      	b.n	800138a <HAL_GPIO_Init+0x13e>
 80013e8:	2503      	movs	r5, #3
 80013ea:	e7ce      	b.n	800138a <HAL_GPIO_Init+0x13e>
 80013ec:	2504      	movs	r5, #4
 80013ee:	e7cc      	b.n	800138a <HAL_GPIO_Init+0x13e>
 80013f0:	2505      	movs	r5, #5
 80013f2:	e7ca      	b.n	800138a <HAL_GPIO_Init+0x13e>
 80013f4:	2506      	movs	r5, #6
 80013f6:	e7c8      	b.n	800138a <HAL_GPIO_Init+0x13e>
 80013f8:	2507      	movs	r5, #7
 80013fa:	e7c6      	b.n	800138a <HAL_GPIO_Init+0x13e>
 80013fc:	2508      	movs	r5, #8
 80013fe:	e7c4      	b.n	800138a <HAL_GPIO_Init+0x13e>
 8001400:	40013c00 	.word	0x40013c00
 8001404:	40020000 	.word	0x40020000
 8001408:	40023800 	.word	0x40023800
 800140c:	40021400 	.word	0x40021400

08001410 <HAL_GPIO_ReadPin>:
 8001410:	6903      	ldr	r3, [r0, #16]
 8001412:	4219      	tst	r1, r3
 8001414:	bf14      	ite	ne
 8001416:	2001      	movne	r0, #1
 8001418:	2000      	moveq	r0, #0
 800141a:	4770      	bx	lr

0800141c <HAL_GPIO_WritePin>:
 800141c:	b10a      	cbz	r2, 8001422 <HAL_GPIO_WritePin+0x6>
 800141e:	6181      	str	r1, [r0, #24]
 8001420:	4770      	bx	lr
 8001422:	0409      	lsls	r1, r1, #16
 8001424:	e7fb      	b.n	800141e <HAL_GPIO_WritePin+0x2>

08001426 <HAL_GPIO_TogglePin>:
 8001426:	6943      	ldr	r3, [r0, #20]
 8001428:	420b      	tst	r3, r1
 800142a:	bf18      	it	ne
 800142c:	0409      	lslne	r1, r1, #16
 800142e:	6181      	str	r1, [r0, #24]
 8001430:	4770      	bx	lr

08001432 <I2C_Flush_TXDR>:
 8001432:	6803      	ldr	r3, [r0, #0]
 8001434:	699a      	ldr	r2, [r3, #24]
 8001436:	0791      	lsls	r1, r2, #30
 8001438:	d501      	bpl.n	800143e <I2C_Flush_TXDR+0xc>
 800143a:	2200      	movs	r2, #0
 800143c:	629a      	str	r2, [r3, #40]	; 0x28
 800143e:	699a      	ldr	r2, [r3, #24]
 8001440:	07d2      	lsls	r2, r2, #31
 8001442:	d403      	bmi.n	800144c <I2C_Flush_TXDR+0x1a>
 8001444:	699a      	ldr	r2, [r3, #24]
 8001446:	f042 0201 	orr.w	r2, r2, #1
 800144a:	619a      	str	r2, [r3, #24]
 800144c:	4770      	bx	lr
	...

08001450 <I2C_TransferConfig>:
 8001450:	b530      	push	{r4, r5, lr}
 8001452:	9d03      	ldr	r5, [sp, #12]
 8001454:	f3c1 0109 	ubfx	r1, r1, #0, #10
 8001458:	6804      	ldr	r4, [r0, #0]
 800145a:	ea45 4202 	orr.w	r2, r5, r2, lsl #16
 800145e:	6860      	ldr	r0, [r4, #4]
 8001460:	431a      	orrs	r2, r3
 8001462:	4b04      	ldr	r3, [pc, #16]	; (8001474 <I2C_TransferConfig+0x24>)
 8001464:	ea43 5355 	orr.w	r3, r3, r5, lsr #21
 8001468:	430a      	orrs	r2, r1
 800146a:	ea20 0003 	bic.w	r0, r0, r3
 800146e:	4302      	orrs	r2, r0
 8001470:	6062      	str	r2, [r4, #4]
 8001472:	bd30      	pop	{r4, r5, pc}
 8001474:	03ff63ff 	.word	0x03ff63ff

08001478 <I2C_IsAcknowledgeFailed>:
 8001478:	b5f8      	push	{r3, r4, r5, r6, r7, lr}
 800147a:	6803      	ldr	r3, [r0, #0]
 800147c:	4604      	mov	r4, r0
 800147e:	460e      	mov	r6, r1
 8001480:	4617      	mov	r7, r2
 8001482:	6998      	ldr	r0, [r3, #24]
 8001484:	f010 0010 	ands.w	r0, r0, #16
 8001488:	d116      	bne.n	80014b8 <I2C_IsAcknowledgeFailed+0x40>
 800148a:	bdf8      	pop	{r3, r4, r5, r6, r7, pc}
 800148c:	1c72      	adds	r2, r6, #1
 800148e:	d014      	beq.n	80014ba <I2C_IsAcknowledgeFailed+0x42>
 8001490:	f7ff fc88 	bl	8000da4 <HAL_GetTick>
 8001494:	1bc0      	subs	r0, r0, r7
 8001496:	4286      	cmp	r6, r0
 8001498:	d300      	bcc.n	800149c <I2C_IsAcknowledgeFailed+0x24>
 800149a:	b96e      	cbnz	r6, 80014b8 <I2C_IsAcknowledgeFailed+0x40>
 800149c:	6c63      	ldr	r3, [r4, #68]	; 0x44
 800149e:	f043 0320 	orr.w	r3, r3, #32
 80014a2:	6463      	str	r3, [r4, #68]	; 0x44
 80014a4:	2320      	movs	r3, #32
 80014a6:	f884 3041 	strb.w	r3, [r4, #65]	; 0x41
 80014aa:	2300      	movs	r3, #0
 80014ac:	f884 3042 	strb.w	r3, [r4, #66]	; 0x42
 80014b0:	f884 3040 	strb.w	r3, [r4, #64]	; 0x40
 80014b4:	2001      	movs	r0, #1
 80014b6:	e7e8      	b.n	800148a <I2C_IsAcknowledgeFailed+0x12>
 80014b8:	6825      	ldr	r5, [r4, #0]
 80014ba:	69ab      	ldr	r3, [r5, #24]
 80014bc:	069b      	lsls	r3, r3, #26
 80014be:	d5e5      	bpl.n	800148c <I2C_IsAcknowledgeFailed+0x14>
 80014c0:	2310      	movs	r3, #16
 80014c2:	2620      	movs	r6, #32
 80014c4:	4620      	mov	r0, r4
 80014c6:	61eb      	str	r3, [r5, #28]
 80014c8:	61ee      	str	r6, [r5, #28]
 80014ca:	f7ff ffb2 	bl	8001432 <I2C_Flush_TXDR>
 80014ce:	686b      	ldr	r3, [r5, #4]
 80014d0:	f023 73ff 	bic.w	r3, r3, #33423360	; 0x1fe0000
 80014d4:	f423 338b 	bic.w	r3, r3, #71168	; 0x11600
 80014d8:	f423 73ff 	bic.w	r3, r3, #510	; 0x1fe
 80014dc:	f023 0301 	bic.w	r3, r3, #1
 80014e0:	606b      	str	r3, [r5, #4]
 80014e2:	6c63      	ldr	r3, [r4, #68]	; 0x44
 80014e4:	f043 0304 	orr.w	r3, r3, #4
 80014e8:	6463      	str	r3, [r4, #68]	; 0x44
 80014ea:	2300      	movs	r3, #0
 80014ec:	f884 6041 	strb.w	r6, [r4, #65]	; 0x41
 80014f0:	f884 3040 	strb.w	r3, [r4, #64]	; 0x40
 80014f4:	f884 3042 	strb.w	r3, [r4, #66]	; 0x42
 80014f8:	e7dc      	b.n	80014b4 <I2C_IsAcknowledgeFailed+0x3c>

080014fa <I2C_WaitOnTXISFlagUntilTimeout>:
 80014fa:	b570      	push	{r4, r5, r6, lr}
 80014fc:	4604      	mov	r4, r0
 80014fe:	460d      	mov	r5, r1
 8001500:	4616      	mov	r6, r2
 8001502:	6823      	ldr	r3, [r4, #0]
 8001504:	699b      	ldr	r3, [r3, #24]
 8001506:	079b      	lsls	r3, r3, #30
 8001508:	d501      	bpl.n	800150e <I2C_WaitOnTXISFlagUntilTimeout+0x14>
 800150a:	2000      	movs	r0, #0
 800150c:	bd70      	pop	{r4, r5, r6, pc}
 800150e:	4632      	mov	r2, r6
 8001510:	4629      	mov	r1, r5
 8001512:	4620      	mov	r0, r4
 8001514:	f7ff ffb0 	bl	8001478 <I2C_IsAcknowledgeFailed>
 8001518:	b9a0      	cbnz	r0, 8001544 <I2C_WaitOnTXISFlagUntilTimeout+0x4a>
 800151a:	1c6a      	adds	r2, r5, #1
 800151c:	d0f1      	beq.n	8001502 <I2C_WaitOnTXISFlagUntilTimeout+0x8>
 800151e:	f7ff fc41 	bl	8000da4 <HAL_GetTick>
 8001522:	1b80      	subs	r0, r0, r6
 8001524:	42a8      	cmp	r0, r5
 8001526:	d801      	bhi.n	800152c <I2C_WaitOnTXISFlagUntilTimeout+0x32>
 8001528:	2d00      	cmp	r5, #0
 800152a:	d1ea      	bne.n	8001502 <I2C_WaitOnTXISFlagUntilTimeout+0x8>
 800152c:	6c63      	ldr	r3, [r4, #68]	; 0x44
 800152e:	f043 0320 	orr.w	r3, r3, #32
 8001532:	6463      	str	r3, [r4, #68]	; 0x44
 8001534:	2320      	movs	r3, #32
 8001536:	f884 3041 	strb.w	r3, [r4, #65]	; 0x41
 800153a:	2300      	movs	r3, #0
 800153c:	f884 3042 	strb.w	r3, [r4, #66]	; 0x42
 8001540:	f884 3040 	strb.w	r3, [r4, #64]	; 0x40
 8001544:	2001      	movs	r0, #1
 8001546:	e7e1      	b.n	800150c <I2C_WaitOnTXISFlagUntilTimeout+0x12>

08001548 <I2C_WaitOnFlagUntilTimeout>:
 8001548:	e92d 41f0 	stmdb	sp!, {r4, r5, r6, r7, r8, lr}
 800154c:	9f06      	ldr	r7, [sp, #24]
 800154e:	4604      	mov	r4, r0
 8001550:	4688      	mov	r8, r1
 8001552:	4616      	mov	r6, r2
 8001554:	461d      	mov	r5, r3
 8001556:	6822      	ldr	r2, [r4, #0]
 8001558:	6993      	ldr	r3, [r2, #24]
 800155a:	ea38 0303 	bics.w	r3, r8, r3
 800155e:	bf0c      	ite	eq
 8001560:	2301      	moveq	r3, #1
 8001562:	2300      	movne	r3, #0
 8001564:	42b3      	cmp	r3, r6
 8001566:	d001      	beq.n	800156c <I2C_WaitOnFlagUntilTimeout+0x24>
 8001568:	2000      	movs	r0, #0
 800156a:	e015      	b.n	8001598 <I2C_WaitOnFlagUntilTimeout+0x50>
 800156c:	1c6b      	adds	r3, r5, #1
 800156e:	d0f3      	beq.n	8001558 <I2C_WaitOnFlagUntilTimeout+0x10>
 8001570:	f7ff fc18 	bl	8000da4 <HAL_GetTick>
 8001574:	1bc0      	subs	r0, r0, r7
 8001576:	42a8      	cmp	r0, r5
 8001578:	d801      	bhi.n	800157e <I2C_WaitOnFlagUntilTimeout+0x36>
 800157a:	2d00      	cmp	r5, #0
 800157c:	d1eb      	bne.n	8001556 <I2C_WaitOnFlagUntilTimeout+0xe>
 800157e:	6c63      	ldr	r3, [r4, #68]	; 0x44
 8001580:	2001      	movs	r0, #1
 8001582:	f043 0320 	orr.w	r3, r3, #32
 8001586:	6463      	str	r3, [r4, #68]	; 0x44
 8001588:	2320      	movs	r3, #32
 800158a:	f884 3041 	strb.w	r3, [r4, #65]	; 0x41
 800158e:	2300      	movs	r3, #0
 8001590:	f884 3042 	strb.w	r3, [r4, #66]	; 0x42
 8001594:	f884 3040 	strb.w	r3, [r4, #64]	; 0x40
 8001598:	e8bd 81f0 	ldmia.w	sp!, {r4, r5, r6, r7, r8, pc}

0800159c <I2C_RequestMemoryWrite>:
 800159c:	e92d 41f3 	stmdb	sp!, {r0, r1, r4, r5, r6, r7, r8, lr}
 80015a0:	461e      	mov	r6, r3
 80015a2:	4b18      	ldr	r3, [pc, #96]	; (8001604 <I2C_RequestMemoryWrite+0x68>)
 80015a4:	4605      	mov	r5, r0
 80015a6:	4614      	mov	r4, r2
 80015a8:	9300      	str	r3, [sp, #0]
 80015aa:	b2f2      	uxtb	r2, r6
 80015ac:	f04f 7380 	mov.w	r3, #16777216	; 0x1000000
 80015b0:	e9dd 7808 	ldrd	r7, r8, [sp, #32]
 80015b4:	f7ff ff4c 	bl	8001450 <I2C_TransferConfig>
 80015b8:	4628      	mov	r0, r5
 80015ba:	4642      	mov	r2, r8
 80015bc:	4639      	mov	r1, r7
 80015be:	f7ff ff9c 	bl	80014fa <I2C_WaitOnTXISFlagUntilTimeout>
 80015c2:	b118      	cbz	r0, 80015cc <I2C_RequestMemoryWrite+0x30>
 80015c4:	2001      	movs	r0, #1
 80015c6:	b002      	add	sp, #8
 80015c8:	e8bd 81f0 	ldmia.w	sp!, {r4, r5, r6, r7, r8, pc}
 80015cc:	2e01      	cmp	r6, #1
 80015ce:	682b      	ldr	r3, [r5, #0]
 80015d0:	d10d      	bne.n	80015ee <I2C_RequestMemoryWrite+0x52>
 80015d2:	b2e4      	uxtb	r4, r4
 80015d4:	2200      	movs	r2, #0
 80015d6:	2180      	movs	r1, #128	; 0x80
 80015d8:	4628      	mov	r0, r5
 80015da:	629c      	str	r4, [r3, #40]	; 0x28
 80015dc:	463b      	mov	r3, r7
 80015de:	f8cd 8000 	str.w	r8, [sp]
 80015e2:	f7ff ffb1 	bl	8001548 <I2C_WaitOnFlagUntilTimeout>
 80015e6:	3800      	subs	r0, #0
 80015e8:	bf18      	it	ne
 80015ea:	2001      	movne	r0, #1
 80015ec:	e7eb      	b.n	80015c6 <I2C_RequestMemoryWrite+0x2a>
 80015ee:	0a22      	lsrs	r2, r4, #8
 80015f0:	4639      	mov	r1, r7
 80015f2:	4628      	mov	r0, r5
 80015f4:	629a      	str	r2, [r3, #40]	; 0x28
 80015f6:	4642      	mov	r2, r8
 80015f8:	f7ff ff7f 	bl	80014fa <I2C_WaitOnTXISFlagUntilTimeout>
 80015fc:	2800      	cmp	r0, #0
 80015fe:	d1e1      	bne.n	80015c4 <I2C_RequestMemoryWrite+0x28>
 8001600:	682b      	ldr	r3, [r5, #0]
 8001602:	e7e6      	b.n	80015d2 <I2C_RequestMemoryWrite+0x36>
 8001604:	80002000 	.word	0x80002000

08001608 <I2C_RequestMemoryRead>:
 8001608:	e92d 41f3 	stmdb	sp!, {r0, r1, r4, r5, r6, r7, r8, lr}
 800160c:	461e      	mov	r6, r3
 800160e:	4b18      	ldr	r3, [pc, #96]	; (8001670 <I2C_RequestMemoryRead+0x68>)
 8001610:	4605      	mov	r5, r0
 8001612:	4614      	mov	r4, r2
 8001614:	9300      	str	r3, [sp, #0]
 8001616:	b2f2      	uxtb	r2, r6
 8001618:	2300      	movs	r3, #0
 800161a:	e9dd 7808 	ldrd	r7, r8, [sp, #32]
 800161e:	f7ff ff17 	bl	8001450 <I2C_TransferConfig>
 8001622:	4628      	mov	r0, r5
 8001624:	4642      	mov	r2, r8
 8001626:	4639      	mov	r1, r7
 8001628:	f7ff ff67 	bl	80014fa <I2C_WaitOnTXISFlagUntilTimeout>
 800162c:	b118      	cbz	r0, 8001636 <I2C_RequestMemoryRead+0x2e>
 800162e:	2001      	movs	r0, #1
 8001630:	b002      	add	sp, #8
 8001632:	e8bd 81f0 	ldmia.w	sp!, {r4, r5, r6, r7, r8, pc}
 8001636:	2e01      	cmp	r6, #1
 8001638:	682b      	ldr	r3, [r5, #0]
 800163a:	d10d      	bne.n	8001658 <I2C_RequestMemoryRead+0x50>
 800163c:	b2e4      	uxtb	r4, r4
 800163e:	2200      	movs	r2, #0
 8001640:	2140      	movs	r1, #64	; 0x40
 8001642:	4628      	mov	r0, r5
 8001644:	629c      	str	r4, [r3, #40]	; 0x28
 8001646:	463b      	mov	r3, r7
 8001648:	f8cd 8000 	str.w	r8, [sp]
 800164c:	f7ff ff7c 	bl	8001548 <I2C_WaitOnFlagUntilTimeout>
 8001650:	3800      	subs	r0, #0
 8001652:	bf18      	it	ne
 8001654:	2001      	movne	r0, #1
 8001656:	e7eb      	b.n	8001630 <I2C_RequestMemoryRead+0x28>
 8001658:	0a22      	lsrs	r2, r4, #8
 800165a:	4639      	mov	r1, r7
 800165c:	4628      	mov	r0, r5
 800165e:	629a      	str	r2, [r3, #40]	; 0x28
 8001660:	4642      	mov	r2, r8
 8001662:	f7ff ff4a 	bl	80014fa <I2C_WaitOnTXISFlagUntilTimeout>
 8001666:	2800      	cmp	r0, #0
 8001668:	d1e1      	bne.n	800162e <I2C_RequestMemoryRead+0x26>
 800166a:	682b      	ldr	r3, [r5, #0]
 800166c:	e7e6      	b.n	800163c <I2C_RequestMemoryRead+0x34>
 800166e:	bf00      	nop
 8001670:	80002000 	.word	0x80002000

08001674 <I2C_WaitOnSTOPFlagUntilTimeout>:
 8001674:	b570      	push	{r4, r5, r6, lr}
 8001676:	4604      	mov	r4, r0
 8001678:	460d      	mov	r5, r1
 800167a:	4616      	mov	r6, r2
 800167c:	6823      	ldr	r3, [r4, #0]
 800167e:	699b      	ldr	r3, [r3, #24]
 8001680:	069b      	lsls	r3, r3, #26
 8001682:	d501      	bpl.n	8001688 <I2C_WaitOnSTOPFlagUntilTimeout+0x14>
 8001684:	2000      	movs	r0, #0
 8001686:	bd70      	pop	{r4, r5, r6, pc}
 8001688:	4632      	mov	r2, r6
 800168a:	4629      	mov	r1, r5
 800168c:	4620      	mov	r0, r4
 800168e:	f7ff fef3 	bl	8001478 <I2C_IsAcknowledgeFailed>
 8001692:	b990      	cbnz	r0, 80016ba <I2C_WaitOnSTOPFlagUntilTimeout+0x46>
 8001694:	f7ff fb86 	bl	8000da4 <HAL_GetTick>
 8001698:	1b80      	subs	r0, r0, r6
 800169a:	42a8      	cmp	r0, r5
 800169c:	d801      	bhi.n	80016a2 <I2C_WaitOnSTOPFlagUntilTimeout+0x2e>
 800169e:	2d00      	cmp	r5, #0
 80016a0:	d1ec      	bne.n	800167c <I2C_WaitOnSTOPFlagUntilTimeout+0x8>
 80016a2:	6c63      	ldr	r3, [r4, #68]	; 0x44
 80016a4:	f043 0320 	orr.w	r3, r3, #32
 80016a8:	6463      	str	r3, [r4, #68]	; 0x44
 80016aa:	2320      	movs	r3, #32
 80016ac:	f884 3041 	strb.w	r3, [r4, #65]	; 0x41
 80016b0:	2300      	movs	r3, #0
 80016b2:	f884 3042 	strb.w	r3, [r4, #66]	; 0x42
 80016b6:	f884 3040 	strb.w	r3, [r4, #64]	; 0x40
 80016ba:	2001      	movs	r0, #1
 80016bc:	e7e3      	b.n	8001686 <I2C_WaitOnSTOPFlagUntilTimeout+0x12>

080016be <HAL_I2C_Init>:
 80016be:	b510      	push	{r4, lr}
 80016c0:	4604      	mov	r4, r0
 80016c2:	2800      	cmp	r0, #0
 80016c4:	d04a      	beq.n	800175c <HAL_I2C_Init+0x9e>
 80016c6:	f890 3041 	ldrb.w	r3, [r0, #65]	; 0x41
 80016ca:	f003 02ff 	and.w	r2, r3, #255	; 0xff
 80016ce:	b91b      	cbnz	r3, 80016d8 <HAL_I2C_Init+0x1a>
 80016d0:	f880 2040 	strb.w	r2, [r0, #64]	; 0x40
 80016d4:	f7ff f842 	bl	800075c <HAL_I2C_MspInit>
 80016d8:	2324      	movs	r3, #36	; 0x24
 80016da:	f884 3041 	strb.w	r3, [r4, #65]	; 0x41
 80016de:	6823      	ldr	r3, [r4, #0]
 80016e0:	681a      	ldr	r2, [r3, #0]
 80016e2:	f022 0201 	bic.w	r2, r2, #1
 80016e6:	601a      	str	r2, [r3, #0]
 80016e8:	6862      	ldr	r2, [r4, #4]
 80016ea:	f022 6270 	bic.w	r2, r2, #251658240	; 0xf000000
 80016ee:	611a      	str	r2, [r3, #16]
 80016f0:	689a      	ldr	r2, [r3, #8]
 80016f2:	f422 4200 	bic.w	r2, r2, #32768	; 0x8000
 80016f6:	609a      	str	r2, [r3, #8]
 80016f8:	e9d4 2102 	ldrd	r2, r1, [r4, #8]
 80016fc:	2901      	cmp	r1, #1
 80016fe:	d124      	bne.n	800174a <HAL_I2C_Init+0x8c>
 8001700:	f442 4200 	orr.w	r2, r2, #32768	; 0x8000
 8001704:	609a      	str	r2, [r3, #8]
 8001706:	685a      	ldr	r2, [r3, #4]
 8001708:	2000      	movs	r0, #0
 800170a:	f042 7200 	orr.w	r2, r2, #33554432	; 0x2000000
 800170e:	f442 4200 	orr.w	r2, r2, #32768	; 0x8000
 8001712:	605a      	str	r2, [r3, #4]
 8001714:	68da      	ldr	r2, [r3, #12]
 8001716:	f422 4200 	bic.w	r2, r2, #32768	; 0x8000
 800171a:	60da      	str	r2, [r3, #12]
 800171c:	e9d4 2104 	ldrd	r2, r1, [r4, #16]
 8001720:	430a      	orrs	r2, r1
 8001722:	69a1      	ldr	r1, [r4, #24]
 8001724:	ea42 2201 	orr.w	r2, r2, r1, lsl #8
 8001728:	60da      	str	r2, [r3, #12]
 800172a:	e9d4 2107 	ldrd	r2, r1, [r4, #28]
 800172e:	430a      	orrs	r2, r1
 8001730:	601a      	str	r2, [r3, #0]
 8001732:	681a      	ldr	r2, [r3, #0]
 8001734:	f042 0201 	orr.w	r2, r2, #1
 8001738:	601a      	str	r2, [r3, #0]
 800173a:	2320      	movs	r3, #32
 800173c:	6460      	str	r0, [r4, #68]	; 0x44
 800173e:	f884 3041 	strb.w	r3, [r4, #65]	; 0x41
 8001742:	6320      	str	r0, [r4, #48]	; 0x30
 8001744:	f884 0042 	strb.w	r0, [r4, #66]	; 0x42
 8001748:	bd10      	pop	{r4, pc}
 800174a:	f442 4204 	orr.w	r2, r2, #33792	; 0x8400
 800174e:	2902      	cmp	r1, #2
 8001750:	609a      	str	r2, [r3, #8]
 8001752:	d1d8      	bne.n	8001706 <HAL_I2C_Init+0x48>
 8001754:	f44f 6200 	mov.w	r2, #2048	; 0x800
 8001758:	605a      	str	r2, [r3, #4]
 800175a:	e7d4      	b.n	8001706 <HAL_I2C_Init+0x48>
 800175c:	2001      	movs	r0, #1
 800175e:	e7f3      	b.n	8001748 <HAL_I2C_Init+0x8a>

08001760 <HAL_I2C_Mem_Write>:
 8001760:	e92d 4ff0 	stmdb	sp!, {r4, r5, r6, r7, r8, r9, sl, fp, lr}
 8001764:	b085      	sub	sp, #20
 8001766:	469b      	mov	fp, r3
 8001768:	4604      	mov	r4, r0
 800176a:	460f      	mov	r7, r1
 800176c:	f8bd 303c 	ldrh.w	r3, [sp, #60]	; 0x3c
 8001770:	4692      	mov	sl, r2
 8001772:	f8dd 9040 	ldr.w	r9, [sp, #64]	; 0x40
 8001776:	9303      	str	r3, [sp, #12]
 8001778:	f890 3041 	ldrb.w	r3, [r0, #65]	; 0x41
 800177c:	2b20      	cmp	r3, #32
 800177e:	f040 80a3 	bne.w	80018c8 <HAL_I2C_Mem_Write+0x168>
 8001782:	9b0e      	ldr	r3, [sp, #56]	; 0x38
 8001784:	b10b      	cbz	r3, 800178a <HAL_I2C_Mem_Write+0x2a>
 8001786:	9b03      	ldr	r3, [sp, #12]
 8001788:	b933      	cbnz	r3, 8001798 <HAL_I2C_Mem_Write+0x38>
 800178a:	f44f 7300 	mov.w	r3, #512	; 0x200
 800178e:	6463      	str	r3, [r4, #68]	; 0x44
 8001790:	2001      	movs	r0, #1
 8001792:	b005      	add	sp, #20
 8001794:	e8bd 8ff0 	ldmia.w	sp!, {r4, r5, r6, r7, r8, r9, sl, fp, pc}
 8001798:	f890 3040 	ldrb.w	r3, [r0, #64]	; 0x40
 800179c:	2b01      	cmp	r3, #1
 800179e:	f000 8093 	beq.w	80018c8 <HAL_I2C_Mem_Write+0x168>
 80017a2:	2501      	movs	r5, #1
 80017a4:	f880 5040 	strb.w	r5, [r0, #64]	; 0x40
 80017a8:	f7ff fafc 	bl	8000da4 <HAL_GetTick>
 80017ac:	2319      	movs	r3, #25
 80017ae:	9000      	str	r0, [sp, #0]
 80017b0:	4606      	mov	r6, r0
 80017b2:	462a      	mov	r2, r5
 80017b4:	f44f 4100 	mov.w	r1, #32768	; 0x8000
 80017b8:	4620      	mov	r0, r4
 80017ba:	f7ff fec5 	bl	8001548 <I2C_WaitOnFlagUntilTimeout>
 80017be:	4680      	mov	r8, r0
 80017c0:	2800      	cmp	r0, #0
 80017c2:	d1e5      	bne.n	8001790 <HAL_I2C_Mem_Write+0x30>
 80017c4:	2321      	movs	r3, #33	; 0x21
 80017c6:	6360      	str	r0, [r4, #52]	; 0x34
 80017c8:	4652      	mov	r2, sl
 80017ca:	4639      	mov	r1, r7
 80017cc:	f884 3041 	strb.w	r3, [r4, #65]	; 0x41
 80017d0:	2340      	movs	r3, #64	; 0x40
 80017d2:	f884 3042 	strb.w	r3, [r4, #66]	; 0x42
 80017d6:	9b0e      	ldr	r3, [sp, #56]	; 0x38
 80017d8:	6460      	str	r0, [r4, #68]	; 0x44
 80017da:	4620      	mov	r0, r4
 80017dc:	6263      	str	r3, [r4, #36]	; 0x24
 80017de:	9b03      	ldr	r3, [sp, #12]
 80017e0:	e9cd 9600 	strd	r9, r6, [sp]
 80017e4:	8563      	strh	r3, [r4, #42]	; 0x2a
 80017e6:	465b      	mov	r3, fp
 80017e8:	f7ff fed8 	bl	800159c <I2C_RequestMemoryWrite>
 80017ec:	b110      	cbz	r0, 80017f4 <HAL_I2C_Mem_Write+0x94>
 80017ee:	f884 8040 	strb.w	r8, [r4, #64]	; 0x40
 80017f2:	e7cd      	b.n	8001790 <HAL_I2C_Mem_Write+0x30>
 80017f4:	8d63      	ldrh	r3, [r4, #42]	; 0x2a
 80017f6:	b29b      	uxth	r3, r3
 80017f8:	2bff      	cmp	r3, #255	; 0xff
 80017fa:	d955      	bls.n	80018a8 <HAL_I2C_Mem_Write+0x148>
 80017fc:	22ff      	movs	r2, #255	; 0xff
 80017fe:	f04f 7380 	mov.w	r3, #16777216	; 0x1000000
 8001802:	9000      	str	r0, [sp, #0]
 8001804:	8522      	strh	r2, [r4, #40]	; 0x28
 8001806:	4639      	mov	r1, r7
 8001808:	4620      	mov	r0, r4
 800180a:	f7ff fe21 	bl	8001450 <I2C_TransferConfig>
 800180e:	4632      	mov	r2, r6
 8001810:	4649      	mov	r1, r9
 8001812:	4620      	mov	r0, r4
 8001814:	f7ff fe71 	bl	80014fa <I2C_WaitOnTXISFlagUntilTimeout>
 8001818:	2800      	cmp	r0, #0
 800181a:	d1b9      	bne.n	8001790 <HAL_I2C_Mem_Write+0x30>
 800181c:	6a63      	ldr	r3, [r4, #36]	; 0x24
 800181e:	6822      	ldr	r2, [r4, #0]
 8001820:	f813 1b01 	ldrb.w	r1, [r3], #1
 8001824:	6291      	str	r1, [r2, #40]	; 0x28
 8001826:	6263      	str	r3, [r4, #36]	; 0x24
 8001828:	8d63      	ldrh	r3, [r4, #42]	; 0x2a
 800182a:	8d22      	ldrh	r2, [r4, #40]	; 0x28
 800182c:	3b01      	subs	r3, #1
 800182e:	3a01      	subs	r2, #1
 8001830:	b29b      	uxth	r3, r3
 8001832:	b292      	uxth	r2, r2
 8001834:	8563      	strh	r3, [r4, #42]	; 0x2a
 8001836:	8d63      	ldrh	r3, [r4, #42]	; 0x2a
 8001838:	8522      	strh	r2, [r4, #40]	; 0x28
 800183a:	b29b      	uxth	r3, r3
 800183c:	b1ab      	cbz	r3, 800186a <HAL_I2C_Mem_Write+0x10a>
 800183e:	b9a2      	cbnz	r2, 800186a <HAL_I2C_Mem_Write+0x10a>
 8001840:	464b      	mov	r3, r9
 8001842:	2180      	movs	r1, #128	; 0x80
 8001844:	4620      	mov	r0, r4
 8001846:	9600      	str	r6, [sp, #0]
 8001848:	f7ff fe7e 	bl	8001548 <I2C_WaitOnFlagUntilTimeout>
 800184c:	2800      	cmp	r0, #0
 800184e:	d19f      	bne.n	8001790 <HAL_I2C_Mem_Write+0x30>
 8001850:	8d63      	ldrh	r3, [r4, #42]	; 0x2a
 8001852:	b29b      	uxth	r3, r3
 8001854:	2bff      	cmp	r3, #255	; 0xff
 8001856:	d92f      	bls.n	80018b8 <HAL_I2C_Mem_Write+0x158>
 8001858:	22ff      	movs	r2, #255	; 0xff
 800185a:	f04f 7380 	mov.w	r3, #16777216	; 0x1000000
 800185e:	9000      	str	r0, [sp, #0]
 8001860:	8522      	strh	r2, [r4, #40]	; 0x28
 8001862:	4639      	mov	r1, r7
 8001864:	4620      	mov	r0, r4
 8001866:	f7ff fdf3 	bl	8001450 <I2C_TransferConfig>
 800186a:	8d63      	ldrh	r3, [r4, #42]	; 0x2a
 800186c:	b29b      	uxth	r3, r3
 800186e:	2b00      	cmp	r3, #0
 8001870:	d1cd      	bne.n	800180e <HAL_I2C_Mem_Write+0xae>
 8001872:	4632      	mov	r2, r6
 8001874:	4649      	mov	r1, r9
 8001876:	4620      	mov	r0, r4
 8001878:	f7ff fefc 	bl	8001674 <I2C_WaitOnSTOPFlagUntilTimeout>
 800187c:	2800      	cmp	r0, #0
 800187e:	d187      	bne.n	8001790 <HAL_I2C_Mem_Write+0x30>
 8001880:	6823      	ldr	r3, [r4, #0]
 8001882:	2120      	movs	r1, #32
 8001884:	61d9      	str	r1, [r3, #28]
 8001886:	685a      	ldr	r2, [r3, #4]
 8001888:	f022 72ff 	bic.w	r2, r2, #33423360	; 0x1fe0000
 800188c:	f422 328b 	bic.w	r2, r2, #71168	; 0x11600
 8001890:	f422 72ff 	bic.w	r2, r2, #510	; 0x1fe
 8001894:	f022 0201 	bic.w	r2, r2, #1
 8001898:	605a      	str	r2, [r3, #4]
 800189a:	f884 1041 	strb.w	r1, [r4, #65]	; 0x41
 800189e:	f884 0040 	strb.w	r0, [r4, #64]	; 0x40
 80018a2:	f884 0042 	strb.w	r0, [r4, #66]	; 0x42
 80018a6:	e774      	b.n	8001792 <HAL_I2C_Mem_Write+0x32>
 80018a8:	8d62      	ldrh	r2, [r4, #42]	; 0x2a
 80018aa:	f04f 7300 	mov.w	r3, #33554432	; 0x2000000
 80018ae:	9000      	str	r0, [sp, #0]
 80018b0:	b292      	uxth	r2, r2
 80018b2:	8522      	strh	r2, [r4, #40]	; 0x28
 80018b4:	b2d2      	uxtb	r2, r2
 80018b6:	e7a6      	b.n	8001806 <HAL_I2C_Mem_Write+0xa6>
 80018b8:	8d62      	ldrh	r2, [r4, #42]	; 0x2a
 80018ba:	f04f 7300 	mov.w	r3, #33554432	; 0x2000000
 80018be:	9000      	str	r0, [sp, #0]
 80018c0:	b292      	uxth	r2, r2
 80018c2:	8522      	strh	r2, [r4, #40]	; 0x28
 80018c4:	b2d2      	uxtb	r2, r2
 80018c6:	e7cc      	b.n	8001862 <HAL_I2C_Mem_Write+0x102>
 80018c8:	2002      	movs	r0, #2
 80018ca:	e762      	b.n	8001792 <HAL_I2C_Mem_Write+0x32>

080018cc <HAL_I2C_Mem_Read>:
 80018cc:	e92d 4ff0 	stmdb	sp!, {r4, r5, r6, r7, r8, r9, sl, fp, lr}
 80018d0:	b085      	sub	sp, #20
 80018d2:	469b      	mov	fp, r3
 80018d4:	4604      	mov	r4, r0
 80018d6:	460f      	mov	r7, r1
 80018d8:	f8bd 303c 	ldrh.w	r3, [sp, #60]	; 0x3c
 80018dc:	4692      	mov	sl, r2
 80018de:	f8dd 9040 	ldr.w	r9, [sp, #64]	; 0x40
 80018e2:	9303      	str	r3, [sp, #12]
 80018e4:	f890 3041 	ldrb.w	r3, [r0, #65]	; 0x41
 80018e8:	2b20      	cmp	r3, #32
 80018ea:	f040 80a7 	bne.w	8001a3c <HAL_I2C_Mem_Read+0x170>
 80018ee:	9b0e      	ldr	r3, [sp, #56]	; 0x38
 80018f0:	b10b      	cbz	r3, 80018f6 <HAL_I2C_Mem_Read+0x2a>
 80018f2:	9b03      	ldr	r3, [sp, #12]
 80018f4:	b933      	cbnz	r3, 8001904 <HAL_I2C_Mem_Read+0x38>
 80018f6:	f44f 7300 	mov.w	r3, #512	; 0x200
 80018fa:	6463      	str	r3, [r4, #68]	; 0x44
 80018fc:	2001      	movs	r0, #1
 80018fe:	b005      	add	sp, #20
 8001900:	e8bd 8ff0 	ldmia.w	sp!, {r4, r5, r6, r7, r8, r9, sl, fp, pc}
 8001904:	f890 3040 	ldrb.w	r3, [r0, #64]	; 0x40
 8001908:	2b01      	cmp	r3, #1
 800190a:	f000 8097 	beq.w	8001a3c <HAL_I2C_Mem_Read+0x170>
 800190e:	2501      	movs	r5, #1
 8001910:	f880 5040 	strb.w	r5, [r0, #64]	; 0x40
 8001914:	f7ff fa46 	bl	8000da4 <HAL_GetTick>
 8001918:	2319      	movs	r3, #25
 800191a:	9000      	str	r0, [sp, #0]
 800191c:	4606      	mov	r6, r0
 800191e:	462a      	mov	r2, r5
 8001920:	f44f 4100 	mov.w	r1, #32768	; 0x8000
 8001924:	4620      	mov	r0, r4
 8001926:	f7ff fe0f 	bl	8001548 <I2C_WaitOnFlagUntilTimeout>
 800192a:	4680      	mov	r8, r0
 800192c:	2800      	cmp	r0, #0
 800192e:	d1e5      	bne.n	80018fc <HAL_I2C_Mem_Read+0x30>
 8001930:	2322      	movs	r3, #34	; 0x22
 8001932:	6360      	str	r0, [r4, #52]	; 0x34
 8001934:	4652      	mov	r2, sl
 8001936:	4639      	mov	r1, r7
 8001938:	f884 3041 	strb.w	r3, [r4, #65]	; 0x41
 800193c:	2340      	movs	r3, #64	; 0x40
 800193e:	f884 3042 	strb.w	r3, [r4, #66]	; 0x42
 8001942:	9b0e      	ldr	r3, [sp, #56]	; 0x38
 8001944:	6460      	str	r0, [r4, #68]	; 0x44
 8001946:	4620      	mov	r0, r4
 8001948:	6263      	str	r3, [r4, #36]	; 0x24
 800194a:	9b03      	ldr	r3, [sp, #12]
 800194c:	e9cd 9600 	strd	r9, r6, [sp]
 8001950:	8563      	strh	r3, [r4, #42]	; 0x2a
 8001952:	465b      	mov	r3, fp
 8001954:	f7ff fe58 	bl	8001608 <I2C_RequestMemoryRead>
 8001958:	b110      	cbz	r0, 8001960 <HAL_I2C_Mem_Read+0x94>
 800195a:	f884 8040 	strb.w	r8, [r4, #64]	; 0x40
 800195e:	e7cd      	b.n	80018fc <HAL_I2C_Mem_Read+0x30>
 8001960:	8d63      	ldrh	r3, [r4, #42]	; 0x2a
 8001962:	b29b      	uxth	r3, r3
 8001964:	2bff      	cmp	r3, #255	; 0xff
 8001966:	4b36      	ldr	r3, [pc, #216]	; (8001a40 <HAL_I2C_Mem_Read+0x174>)
 8001968:	d958      	bls.n	8001a1c <HAL_I2C_Mem_Read+0x150>
 800196a:	22ff      	movs	r2, #255	; 0xff
 800196c:	9300      	str	r3, [sp, #0]
 800196e:	f04f 7380 	mov.w	r3, #16777216	; 0x1000000
 8001972:	8522      	strh	r2, [r4, #40]	; 0x28
 8001974:	4639      	mov	r1, r7
 8001976:	4620      	mov	r0, r4
 8001978:	f7ff fd6a 	bl	8001450 <I2C_TransferConfig>
 800197c:	464b      	mov	r3, r9
 800197e:	2200      	movs	r2, #0
 8001980:	2104      	movs	r1, #4
 8001982:	4620      	mov	r0, r4
 8001984:	9600      	str	r6, [sp, #0]
 8001986:	f7ff fddf 	bl	8001548 <I2C_WaitOnFlagUntilTimeout>
 800198a:	2800      	cmp	r0, #0
 800198c:	d1b6      	bne.n	80018fc <HAL_I2C_Mem_Read+0x30>
 800198e:	6823      	ldr	r3, [r4, #0]
 8001990:	6a5a      	ldr	r2, [r3, #36]	; 0x24
 8001992:	6a63      	ldr	r3, [r4, #36]	; 0x24
 8001994:	701a      	strb	r2, [r3, #0]
 8001996:	6a63      	ldr	r3, [r4, #36]	; 0x24
 8001998:	8d22      	ldrh	r2, [r4, #40]	; 0x28
 800199a:	3301      	adds	r3, #1
 800199c:	3a01      	subs	r2, #1
 800199e:	6263      	str	r3, [r4, #36]	; 0x24
 80019a0:	8d63      	ldrh	r3, [r4, #42]	; 0x2a
 80019a2:	b292      	uxth	r2, r2
 80019a4:	3b01      	subs	r3, #1
 80019a6:	8522      	strh	r2, [r4, #40]	; 0x28
 80019a8:	b29b      	uxth	r3, r3
 80019aa:	8563      	strh	r3, [r4, #42]	; 0x2a
 80019ac:	8d63      	ldrh	r3, [r4, #42]	; 0x2a
 80019ae:	b29b      	uxth	r3, r3
 80019b0:	b1ab      	cbz	r3, 80019de <HAL_I2C_Mem_Read+0x112>
 80019b2:	b9a2      	cbnz	r2, 80019de <HAL_I2C_Mem_Read+0x112>
 80019b4:	464b      	mov	r3, r9
 80019b6:	2180      	movs	r1, #128	; 0x80
 80019b8:	4620      	mov	r0, r4
 80019ba:	9600      	str	r6, [sp, #0]
 80019bc:	f7ff fdc4 	bl	8001548 <I2C_WaitOnFlagUntilTimeout>
 80019c0:	2800      	cmp	r0, #0
 80019c2:	d19b      	bne.n	80018fc <HAL_I2C_Mem_Read+0x30>
 80019c4:	8d63      	ldrh	r3, [r4, #42]	; 0x2a
 80019c6:	b29b      	uxth	r3, r3
 80019c8:	2bff      	cmp	r3, #255	; 0xff
 80019ca:	d92f      	bls.n	8001a2c <HAL_I2C_Mem_Read+0x160>
 80019cc:	22ff      	movs	r2, #255	; 0xff
 80019ce:	f04f 7380 	mov.w	r3, #16777216	; 0x1000000
 80019d2:	9000      	str	r0, [sp, #0]
 80019d4:	8522      	strh	r2, [r4, #40]	; 0x28
 80019d6:	4639      	mov	r1, r7
 80019d8:	4620      	mov	r0, r4
 80019da:	f7ff fd39 	bl	8001450 <I2C_TransferConfig>
 80019de:	8d63      	ldrh	r3, [r4, #42]	; 0x2a
 80019e0:	b29b      	uxth	r3, r3
 80019e2:	2b00      	cmp	r3, #0
 80019e4:	d1ca      	bne.n	800197c <HAL_I2C_Mem_Read+0xb0>
 80019e6:	4632      	mov	r2, r6
 80019e8:	4649      	mov	r1, r9
 80019ea:	4620      	mov	r0, r4
 80019ec:	f7ff fe42 	bl	8001674 <I2C_WaitOnSTOPFlagUntilTimeout>
 80019f0:	2800      	cmp	r0, #0
 80019f2:	d183      	bne.n	80018fc <HAL_I2C_Mem_Read+0x30>
 80019f4:	6823      	ldr	r3, [r4, #0]
 80019f6:	2120      	movs	r1, #32
 80019f8:	61d9      	str	r1, [r3, #28]
 80019fa:	685a      	ldr	r2, [r3, #4]
 80019fc:	f022 72ff 	bic.w	r2, r2, #33423360	; 0x1fe0000
 8001a00:	f422 328b 	bic.w	r2, r2, #71168	; 0x11600
 8001a04:	f422 72ff 	bic.w	r2, r2, #510	; 0x1fe
 8001a08:	f022 0201 	bic.w	r2, r2, #1
 8001a0c:	605a      	str	r2, [r3, #4]
 8001a0e:	f884 1041 	strb.w	r1, [r4, #65]	; 0x41
 8001a12:	f884 0040 	strb.w	r0, [r4, #64]	; 0x40
 8001a16:	f884 0042 	strb.w	r0, [r4, #66]	; 0x42
 8001a1a:	e770      	b.n	80018fe <HAL_I2C_Mem_Read+0x32>
 8001a1c:	8d62      	ldrh	r2, [r4, #42]	; 0x2a
 8001a1e:	9300      	str	r3, [sp, #0]
 8001a20:	f04f 7300 	mov.w	r3, #33554432	; 0x2000000
 8001a24:	b292      	uxth	r2, r2
 8001a26:	8522      	strh	r2, [r4, #40]	; 0x28
 8001a28:	b2d2      	uxtb	r2, r2
 8001a2a:	e7a3      	b.n	8001974 <HAL_I2C_Mem_Read+0xa8>
 8001a2c:	8d62      	ldrh	r2, [r4, #42]	; 0x2a
 8001a2e:	f04f 7300 	mov.w	r3, #33554432	; 0x2000000
 8001a32:	9000      	str	r0, [sp, #0]
 8001a34:	b292      	uxth	r2, r2
 8001a36:	8522      	strh	r2, [r4, #40]	; 0x28
 8001a38:	b2d2      	uxtb	r2, r2
 8001a3a:	e7cc      	b.n	80019d6 <HAL_I2C_Mem_Read+0x10a>
 8001a3c:	2002      	movs	r0, #2
 8001a3e:	e75e      	b.n	80018fe <HAL_I2C_Mem_Read+0x32>
 8001a40:	80002400 	.word	0x80002400

08001a44 <HAL_I2CEx_ConfigAnalogFilter>:
 8001a44:	b510      	push	{r4, lr}
 8001a46:	f890 3041 	ldrb.w	r3, [r0, #65]	; 0x41
 8001a4a:	2b20      	cmp	r3, #32
 8001a4c:	b2dc      	uxtb	r4, r3
 8001a4e:	d11d      	bne.n	8001a8c <HAL_I2CEx_ConfigAnalogFilter+0x48>
 8001a50:	f890 3040 	ldrb.w	r3, [r0, #64]	; 0x40
 8001a54:	2b01      	cmp	r3, #1
 8001a56:	d019      	beq.n	8001a8c <HAL_I2CEx_ConfigAnalogFilter+0x48>
 8001a58:	2324      	movs	r3, #36	; 0x24
 8001a5a:	f880 3041 	strb.w	r3, [r0, #65]	; 0x41
 8001a5e:	6803      	ldr	r3, [r0, #0]
 8001a60:	681a      	ldr	r2, [r3, #0]
 8001a62:	f022 0201 	bic.w	r2, r2, #1
 8001a66:	601a      	str	r2, [r3, #0]
 8001a68:	681a      	ldr	r2, [r3, #0]
 8001a6a:	f422 5280 	bic.w	r2, r2, #4096	; 0x1000
 8001a6e:	601a      	str	r2, [r3, #0]
 8001a70:	681a      	ldr	r2, [r3, #0]
 8001a72:	4311      	orrs	r1, r2
 8001a74:	6019      	str	r1, [r3, #0]
 8001a76:	681a      	ldr	r2, [r3, #0]
 8001a78:	f042 0201 	orr.w	r2, r2, #1
 8001a7c:	601a      	str	r2, [r3, #0]
 8001a7e:	2300      	movs	r3, #0
 8001a80:	f880 4041 	strb.w	r4, [r0, #65]	; 0x41
 8001a84:	f880 3040 	strb.w	r3, [r0, #64]	; 0x40
 8001a88:	4618      	mov	r0, r3
 8001a8a:	bd10      	pop	{r4, pc}
 8001a8c:	2002      	movs	r0, #2
 8001a8e:	e7fc      	b.n	8001a8a <HAL_I2CEx_ConfigAnalogFilter+0x46>

08001a90 <HAL_I2CEx_ConfigDigitalFilter>:
 8001a90:	b510      	push	{r4, lr}
 8001a92:	f890 3041 	ldrb.w	r3, [r0, #65]	; 0x41
 8001a96:	2b20      	cmp	r3, #32
 8001a98:	b2dc      	uxtb	r4, r3
 8001a9a:	d11c      	bne.n	8001ad6 <HAL_I2CEx_ConfigDigitalFilter+0x46>
 8001a9c:	f890 3040 	ldrb.w	r3, [r0, #64]	; 0x40
 8001aa0:	2b01      	cmp	r3, #1
 8001aa2:	d018      	beq.n	8001ad6 <HAL_I2CEx_ConfigDigitalFilter+0x46>
 8001aa4:	2324      	movs	r3, #36	; 0x24
 8001aa6:	f880 3041 	strb.w	r3, [r0, #65]	; 0x41
 8001aaa:	6803      	ldr	r3, [r0, #0]
 8001aac:	681a      	ldr	r2, [r3, #0]
 8001aae:	f022 0201 	bic.w	r2, r2, #1
 8001ab2:	601a      	str	r2, [r3, #0]
 8001ab4:	681a      	ldr	r2, [r3, #0]
 8001ab6:	f422 6270 	bic.w	r2, r2, #3840	; 0xf00
 8001aba:	ea42 2101 	orr.w	r1, r2, r1, lsl #8
 8001abe:	6019      	str	r1, [r3, #0]
 8001ac0:	681a      	ldr	r2, [r3, #0]
 8001ac2:	f042 0201 	orr.w	r2, r2, #1
 8001ac6:	601a      	str	r2, [r3, #0]
 8001ac8:	2300      	movs	r3, #0
 8001aca:	f880 4041 	strb.w	r4, [r0, #65]	; 0x41
 8001ace:	f880 3040 	strb.w	r3, [r0, #64]	; 0x40
 8001ad2:	4618      	mov	r0, r3
 8001ad4:	bd10      	pop	{r4, pc}
 8001ad6:	2002      	movs	r0, #2
 8001ad8:	e7fc      	b.n	8001ad4 <HAL_I2CEx_ConfigDigitalFilter+0x44>
	...

08001adc <HAL_PWR_EnableBkUpAccess>:
 8001adc:	4a02      	ldr	r2, [pc, #8]	; (8001ae8 <HAL_PWR_EnableBkUpAccess+0xc>)
 8001ade:	6813      	ldr	r3, [r2, #0]
 8001ae0:	f443 7380 	orr.w	r3, r3, #256	; 0x100
 8001ae4:	6013      	str	r3, [r2, #0]
 8001ae6:	4770      	bx	lr
 8001ae8:	40007000 	.word	0x40007000

08001aec <HAL_PWREx_EnableOverDrive>:
 8001aec:	4b19      	ldr	r3, [pc, #100]	; (8001b54 <HAL_PWREx_EnableOverDrive+0x68>)
 8001aee:	b537      	push	{r0, r1, r2, r4, r5, lr}
 8001af0:	6c1a      	ldr	r2, [r3, #64]	; 0x40
 8001af2:	4c19      	ldr	r4, [pc, #100]	; (8001b58 <HAL_PWREx_EnableOverDrive+0x6c>)
 8001af4:	f042 5280 	orr.w	r2, r2, #268435456	; 0x10000000
 8001af8:	641a      	str	r2, [r3, #64]	; 0x40
 8001afa:	6c1b      	ldr	r3, [r3, #64]	; 0x40
 8001afc:	f003 5380 	and.w	r3, r3, #268435456	; 0x10000000
 8001b00:	9301      	str	r3, [sp, #4]
 8001b02:	9b01      	ldr	r3, [sp, #4]
 8001b04:	6823      	ldr	r3, [r4, #0]
 8001b06:	f443 3380 	orr.w	r3, r3, #65536	; 0x10000
 8001b0a:	6023      	str	r3, [r4, #0]
 8001b0c:	f7ff f94a 	bl	8000da4 <HAL_GetTick>
 8001b10:	4605      	mov	r5, r0
 8001b12:	6863      	ldr	r3, [r4, #4]
 8001b14:	03da      	lsls	r2, r3, #15
 8001b16:	d50c      	bpl.n	8001b32 <HAL_PWREx_EnableOverDrive+0x46>
 8001b18:	6823      	ldr	r3, [r4, #0]
 8001b1a:	4d0f      	ldr	r5, [pc, #60]	; (8001b58 <HAL_PWREx_EnableOverDrive+0x6c>)
 8001b1c:	f443 3300 	orr.w	r3, r3, #131072	; 0x20000
 8001b20:	6023      	str	r3, [r4, #0]
 8001b22:	f7ff f93f 	bl	8000da4 <HAL_GetTick>
 8001b26:	4604      	mov	r4, r0
 8001b28:	686b      	ldr	r3, [r5, #4]
 8001b2a:	039b      	lsls	r3, r3, #14
 8001b2c:	d50a      	bpl.n	8001b44 <HAL_PWREx_EnableOverDrive+0x58>
 8001b2e:	2000      	movs	r0, #0
 8001b30:	e006      	b.n	8001b40 <HAL_PWREx_EnableOverDrive+0x54>
 8001b32:	f7ff f937 	bl	8000da4 <HAL_GetTick>
 8001b36:	1b40      	subs	r0, r0, r5
 8001b38:	f5b0 7f7a 	cmp.w	r0, #1000	; 0x3e8
 8001b3c:	d9e9      	bls.n	8001b12 <HAL_PWREx_EnableOverDrive+0x26>
 8001b3e:	2003      	movs	r0, #3
 8001b40:	b003      	add	sp, #12
 8001b42:	bd30      	pop	{r4, r5, pc}
 8001b44:	f7ff f92e 	bl	8000da4 <HAL_GetTick>
 8001b48:	1b00      	subs	r0, r0, r4
 8001b4a:	f5b0 7f7a 	cmp.w	r0, #1000	; 0x3e8
 8001b4e:	d9eb      	bls.n	8001b28 <HAL_PWREx_EnableOverDrive+0x3c>
 8001b50:	e7f5      	b.n	8001b3e <HAL_PWREx_EnableOverDrive+0x52>
 8001b52:	bf00      	nop
 8001b54:	40023800 	.word	0x40023800
 8001b58:	40007000 	.word	0x40007000

08001b5c <HAL_RCC_OscConfig>:
 8001b5c:	e92d 41f3 	stmdb	sp!, {r0, r1, r4, r5, r6, r7, r8, lr}
 8001b60:	4604      	mov	r4, r0
 8001b62:	b340      	cbz	r0, 8001bb6 <HAL_RCC_OscConfig+0x5a>
 8001b64:	6803      	ldr	r3, [r0, #0]
 8001b66:	07db      	lsls	r3, r3, #31
 8001b68:	d410      	bmi.n	8001b8c <HAL_RCC_OscConfig+0x30>
 8001b6a:	6823      	ldr	r3, [r4, #0]
 8001b6c:	079f      	lsls	r7, r3, #30
 8001b6e:	d461      	bmi.n	8001c34 <HAL_RCC_OscConfig+0xd8>
 8001b70:	6823      	ldr	r3, [r4, #0]
 8001b72:	0719      	lsls	r1, r3, #28
 8001b74:	f100 80a6 	bmi.w	8001cc4 <HAL_RCC_OscConfig+0x168>
 8001b78:	6823      	ldr	r3, [r4, #0]
 8001b7a:	075a      	lsls	r2, r3, #29
 8001b7c:	f100 80c7 	bmi.w	8001d0e <HAL_RCC_OscConfig+0x1b2>
 8001b80:	69a2      	ldr	r2, [r4, #24]
 8001b82:	2a00      	cmp	r2, #0
 8001b84:	f040 8130 	bne.w	8001de8 <HAL_RCC_OscConfig+0x28c>
 8001b88:	2000      	movs	r0, #0
 8001b8a:	e02c      	b.n	8001be6 <HAL_RCC_OscConfig+0x8a>
 8001b8c:	4b94      	ldr	r3, [pc, #592]	; (8001de0 <HAL_RCC_OscConfig+0x284>)
 8001b8e:	689a      	ldr	r2, [r3, #8]
 8001b90:	f002 020c 	and.w	r2, r2, #12
 8001b94:	2a04      	cmp	r2, #4
 8001b96:	d007      	beq.n	8001ba8 <HAL_RCC_OscConfig+0x4c>
 8001b98:	689a      	ldr	r2, [r3, #8]
 8001b9a:	f002 020c 	and.w	r2, r2, #12
 8001b9e:	2a08      	cmp	r2, #8
 8001ba0:	d10b      	bne.n	8001bba <HAL_RCC_OscConfig+0x5e>
 8001ba2:	685b      	ldr	r3, [r3, #4]
 8001ba4:	025e      	lsls	r6, r3, #9
 8001ba6:	d508      	bpl.n	8001bba <HAL_RCC_OscConfig+0x5e>
 8001ba8:	4b8d      	ldr	r3, [pc, #564]	; (8001de0 <HAL_RCC_OscConfig+0x284>)
 8001baa:	681b      	ldr	r3, [r3, #0]
 8001bac:	039d      	lsls	r5, r3, #14
 8001bae:	d5dc      	bpl.n	8001b6a <HAL_RCC_OscConfig+0xe>
 8001bb0:	6863      	ldr	r3, [r4, #4]
 8001bb2:	2b00      	cmp	r3, #0
 8001bb4:	d1d9      	bne.n	8001b6a <HAL_RCC_OscConfig+0xe>
 8001bb6:	2001      	movs	r0, #1
 8001bb8:	e015      	b.n	8001be6 <HAL_RCC_OscConfig+0x8a>
 8001bba:	6863      	ldr	r3, [r4, #4]
 8001bbc:	4d88      	ldr	r5, [pc, #544]	; (8001de0 <HAL_RCC_OscConfig+0x284>)
 8001bbe:	f5b3 3f80 	cmp.w	r3, #65536	; 0x10000
 8001bc2:	d113      	bne.n	8001bec <HAL_RCC_OscConfig+0x90>
 8001bc4:	682b      	ldr	r3, [r5, #0]
 8001bc6:	f443 3380 	orr.w	r3, r3, #65536	; 0x10000
 8001bca:	602b      	str	r3, [r5, #0]
 8001bcc:	f7ff f8ea 	bl	8000da4 <HAL_GetTick>
 8001bd0:	4e83      	ldr	r6, [pc, #524]	; (8001de0 <HAL_RCC_OscConfig+0x284>)
 8001bd2:	4605      	mov	r5, r0
 8001bd4:	6833      	ldr	r3, [r6, #0]
 8001bd6:	0398      	lsls	r0, r3, #14
 8001bd8:	d4c7      	bmi.n	8001b6a <HAL_RCC_OscConfig+0xe>
 8001bda:	f7ff f8e3 	bl	8000da4 <HAL_GetTick>
 8001bde:	1b40      	subs	r0, r0, r5
 8001be0:	2864      	cmp	r0, #100	; 0x64
 8001be2:	d9f7      	bls.n	8001bd4 <HAL_RCC_OscConfig+0x78>
 8001be4:	2003      	movs	r0, #3
 8001be6:	b002      	add	sp, #8
 8001be8:	e8bd 81f0 	ldmia.w	sp!, {r4, r5, r6, r7, r8, pc}
 8001bec:	b99b      	cbnz	r3, 8001c16 <HAL_RCC_OscConfig+0xba>
 8001bee:	682b      	ldr	r3, [r5, #0]
 8001bf0:	f423 3380 	bic.w	r3, r3, #65536	; 0x10000
 8001bf4:	602b      	str	r3, [r5, #0]
 8001bf6:	682b      	ldr	r3, [r5, #0]
 8001bf8:	f423 2380 	bic.w	r3, r3, #262144	; 0x40000
 8001bfc:	602b      	str	r3, [r5, #0]
 8001bfe:	f7ff f8d1 	bl	8000da4 <HAL_GetTick>
 8001c02:	4606      	mov	r6, r0
 8001c04:	682b      	ldr	r3, [r5, #0]
 8001c06:	0399      	lsls	r1, r3, #14
 8001c08:	d5af      	bpl.n	8001b6a <HAL_RCC_OscConfig+0xe>
 8001c0a:	f7ff f8cb 	bl	8000da4 <HAL_GetTick>
 8001c0e:	1b80      	subs	r0, r0, r6
 8001c10:	2864      	cmp	r0, #100	; 0x64
 8001c12:	d9f7      	bls.n	8001c04 <HAL_RCC_OscConfig+0xa8>
 8001c14:	e7e6      	b.n	8001be4 <HAL_RCC_OscConfig+0x88>
 8001c16:	f5b3 2fa0 	cmp.w	r3, #327680	; 0x50000
 8001c1a:	682b      	ldr	r3, [r5, #0]
 8001c1c:	d103      	bne.n	8001c26 <HAL_RCC_OscConfig+0xca>
 8001c1e:	f443 2380 	orr.w	r3, r3, #262144	; 0x40000
 8001c22:	602b      	str	r3, [r5, #0]
 8001c24:	e7ce      	b.n	8001bc4 <HAL_RCC_OscConfig+0x68>
 8001c26:	f423 3380 	bic.w	r3, r3, #65536	; 0x10000
 8001c2a:	602b      	str	r3, [r5, #0]
 8001c2c:	682b      	ldr	r3, [r5, #0]
 8001c2e:	f423 2380 	bic.w	r3, r3, #262144	; 0x40000
 8001c32:	e7ca      	b.n	8001bca <HAL_RCC_OscConfig+0x6e>
 8001c34:	4b6a      	ldr	r3, [pc, #424]	; (8001de0 <HAL_RCC_OscConfig+0x284>)
 8001c36:	689a      	ldr	r2, [r3, #8]
 8001c38:	f012 0f0c 	tst.w	r2, #12
 8001c3c:	d007      	beq.n	8001c4e <HAL_RCC_OscConfig+0xf2>
 8001c3e:	689a      	ldr	r2, [r3, #8]
 8001c40:	f002 020c 	and.w	r2, r2, #12
 8001c44:	2a08      	cmp	r2, #8
 8001c46:	d111      	bne.n	8001c6c <HAL_RCC_OscConfig+0x110>
 8001c48:	685b      	ldr	r3, [r3, #4]
 8001c4a:	025a      	lsls	r2, r3, #9
 8001c4c:	d40e      	bmi.n	8001c6c <HAL_RCC_OscConfig+0x110>
 8001c4e:	4a64      	ldr	r2, [pc, #400]	; (8001de0 <HAL_RCC_OscConfig+0x284>)
 8001c50:	6813      	ldr	r3, [r2, #0]
 8001c52:	079b      	lsls	r3, r3, #30
 8001c54:	d502      	bpl.n	8001c5c <HAL_RCC_OscConfig+0x100>
 8001c56:	68e3      	ldr	r3, [r4, #12]
 8001c58:	2b01      	cmp	r3, #1
 8001c5a:	d1ac      	bne.n	8001bb6 <HAL_RCC_OscConfig+0x5a>
 8001c5c:	6813      	ldr	r3, [r2, #0]
 8001c5e:	6921      	ldr	r1, [r4, #16]
 8001c60:	f023 03f8 	bic.w	r3, r3, #248	; 0xf8
 8001c64:	ea43 03c1 	orr.w	r3, r3, r1, lsl #3
 8001c68:	6013      	str	r3, [r2, #0]
 8001c6a:	e781      	b.n	8001b70 <HAL_RCC_OscConfig+0x14>
 8001c6c:	68e3      	ldr	r3, [r4, #12]
 8001c6e:	4d5c      	ldr	r5, [pc, #368]	; (8001de0 <HAL_RCC_OscConfig+0x284>)
 8001c70:	b1bb      	cbz	r3, 8001ca2 <HAL_RCC_OscConfig+0x146>
 8001c72:	682b      	ldr	r3, [r5, #0]
 8001c74:	f043 0301 	orr.w	r3, r3, #1
 8001c78:	602b      	str	r3, [r5, #0]
 8001c7a:	f7ff f893 	bl	8000da4 <HAL_GetTick>
 8001c7e:	4606      	mov	r6, r0
 8001c80:	682b      	ldr	r3, [r5, #0]
 8001c82:	079f      	lsls	r7, r3, #30
 8001c84:	d507      	bpl.n	8001c96 <HAL_RCC_OscConfig+0x13a>
 8001c86:	682b      	ldr	r3, [r5, #0]
 8001c88:	6922      	ldr	r2, [r4, #16]
 8001c8a:	f023 03f8 	bic.w	r3, r3, #248	; 0xf8
 8001c8e:	ea43 03c2 	orr.w	r3, r3, r2, lsl #3
 8001c92:	602b      	str	r3, [r5, #0]
 8001c94:	e76c      	b.n	8001b70 <HAL_RCC_OscConfig+0x14>
 8001c96:	f7ff f885 	bl	8000da4 <HAL_GetTick>
 8001c9a:	1b80      	subs	r0, r0, r6
 8001c9c:	2802      	cmp	r0, #2
 8001c9e:	d9ef      	bls.n	8001c80 <HAL_RCC_OscConfig+0x124>
 8001ca0:	e7a0      	b.n	8001be4 <HAL_RCC_OscConfig+0x88>
 8001ca2:	682b      	ldr	r3, [r5, #0]
 8001ca4:	f023 0301 	bic.w	r3, r3, #1
 8001ca8:	602b      	str	r3, [r5, #0]
 8001caa:	f7ff f87b 	bl	8000da4 <HAL_GetTick>
 8001cae:	4606      	mov	r6, r0
 8001cb0:	682b      	ldr	r3, [r5, #0]
 8001cb2:	0798      	lsls	r0, r3, #30
 8001cb4:	f57f af5c 	bpl.w	8001b70 <HAL_RCC_OscConfig+0x14>
 8001cb8:	f7ff f874 	bl	8000da4 <HAL_GetTick>
 8001cbc:	1b80      	subs	r0, r0, r6
 8001cbe:	2802      	cmp	r0, #2
 8001cc0:	d9f6      	bls.n	8001cb0 <HAL_RCC_OscConfig+0x154>
 8001cc2:	e78f      	b.n	8001be4 <HAL_RCC_OscConfig+0x88>
 8001cc4:	6963      	ldr	r3, [r4, #20]
 8001cc6:	4d46      	ldr	r5, [pc, #280]	; (8001de0 <HAL_RCC_OscConfig+0x284>)
 8001cc8:	b183      	cbz	r3, 8001cec <HAL_RCC_OscConfig+0x190>
 8001cca:	6f6b      	ldr	r3, [r5, #116]	; 0x74
 8001ccc:	f043 0301 	orr.w	r3, r3, #1
 8001cd0:	676b      	str	r3, [r5, #116]	; 0x74
 8001cd2:	f7ff f867 	bl	8000da4 <HAL_GetTick>
 8001cd6:	4606      	mov	r6, r0
 8001cd8:	6f6b      	ldr	r3, [r5, #116]	; 0x74
 8001cda:	079b      	lsls	r3, r3, #30
 8001cdc:	f53f af4c 	bmi.w	8001b78 <HAL_RCC_OscConfig+0x1c>
 8001ce0:	f7ff f860 	bl	8000da4 <HAL_GetTick>
 8001ce4:	1b80      	subs	r0, r0, r6
 8001ce6:	2802      	cmp	r0, #2
 8001ce8:	d9f6      	bls.n	8001cd8 <HAL_RCC_OscConfig+0x17c>
 8001cea:	e77b      	b.n	8001be4 <HAL_RCC_OscConfig+0x88>
 8001cec:	6f6b      	ldr	r3, [r5, #116]	; 0x74
 8001cee:	f023 0301 	bic.w	r3, r3, #1
 8001cf2:	676b      	str	r3, [r5, #116]	; 0x74
 8001cf4:	f7ff f856 	bl	8000da4 <HAL_GetTick>
 8001cf8:	4606      	mov	r6, r0
 8001cfa:	6f6b      	ldr	r3, [r5, #116]	; 0x74
 8001cfc:	079f      	lsls	r7, r3, #30
 8001cfe:	f57f af3b 	bpl.w	8001b78 <HAL_RCC_OscConfig+0x1c>
 8001d02:	f7ff f84f 	bl	8000da4 <HAL_GetTick>
 8001d06:	1b80      	subs	r0, r0, r6
 8001d08:	2802      	cmp	r0, #2
 8001d0a:	d9f6      	bls.n	8001cfa <HAL_RCC_OscConfig+0x19e>
 8001d0c:	e76a      	b.n	8001be4 <HAL_RCC_OscConfig+0x88>
 8001d0e:	4b34      	ldr	r3, [pc, #208]	; (8001de0 <HAL_RCC_OscConfig+0x284>)
 8001d10:	6c1a      	ldr	r2, [r3, #64]	; 0x40
 8001d12:	00d0      	lsls	r0, r2, #3
 8001d14:	d427      	bmi.n	8001d66 <HAL_RCC_OscConfig+0x20a>
 8001d16:	6c1a      	ldr	r2, [r3, #64]	; 0x40
 8001d18:	2701      	movs	r7, #1
 8001d1a:	f042 5280 	orr.w	r2, r2, #268435456	; 0x10000000
 8001d1e:	641a      	str	r2, [r3, #64]	; 0x40
 8001d20:	6c1b      	ldr	r3, [r3, #64]	; 0x40
 8001d22:	f003 5380 	and.w	r3, r3, #268435456	; 0x10000000
 8001d26:	9301      	str	r3, [sp, #4]
 8001d28:	9b01      	ldr	r3, [sp, #4]
 8001d2a:	4d2e      	ldr	r5, [pc, #184]	; (8001de4 <HAL_RCC_OscConfig+0x288>)
 8001d2c:	682b      	ldr	r3, [r5, #0]
 8001d2e:	05d9      	lsls	r1, r3, #23
 8001d30:	d51b      	bpl.n	8001d6a <HAL_RCC_OscConfig+0x20e>
 8001d32:	68a3      	ldr	r3, [r4, #8]
 8001d34:	4d2a      	ldr	r5, [pc, #168]	; (8001de0 <HAL_RCC_OscConfig+0x284>)
 8001d36:	2b01      	cmp	r3, #1
 8001d38:	d127      	bne.n	8001d8a <HAL_RCC_OscConfig+0x22e>
 8001d3a:	6f2b      	ldr	r3, [r5, #112]	; 0x70
 8001d3c:	f043 0301 	orr.w	r3, r3, #1
 8001d40:	672b      	str	r3, [r5, #112]	; 0x70
 8001d42:	f241 3888 	movw	r8, #5000	; 0x1388
 8001d46:	f7ff f82d 	bl	8000da4 <HAL_GetTick>
 8001d4a:	4e25      	ldr	r6, [pc, #148]	; (8001de0 <HAL_RCC_OscConfig+0x284>)
 8001d4c:	4605      	mov	r5, r0
 8001d4e:	6f33      	ldr	r3, [r6, #112]	; 0x70
 8001d50:	079b      	lsls	r3, r3, #30
 8001d52:	d53f      	bpl.n	8001dd4 <HAL_RCC_OscConfig+0x278>
 8001d54:	2f00      	cmp	r7, #0
 8001d56:	f43f af13 	beq.w	8001b80 <HAL_RCC_OscConfig+0x24>
 8001d5a:	4a21      	ldr	r2, [pc, #132]	; (8001de0 <HAL_RCC_OscConfig+0x284>)
 8001d5c:	6c13      	ldr	r3, [r2, #64]	; 0x40
 8001d5e:	f023 5380 	bic.w	r3, r3, #268435456	; 0x10000000
 8001d62:	6413      	str	r3, [r2, #64]	; 0x40
 8001d64:	e70c      	b.n	8001b80 <HAL_RCC_OscConfig+0x24>
 8001d66:	2700      	movs	r7, #0
 8001d68:	e7df      	b.n	8001d2a <HAL_RCC_OscConfig+0x1ce>
 8001d6a:	682b      	ldr	r3, [r5, #0]
 8001d6c:	f443 7380 	orr.w	r3, r3, #256	; 0x100
 8001d70:	602b      	str	r3, [r5, #0]
 8001d72:	f7ff f817 	bl	8000da4 <HAL_GetTick>
 8001d76:	4606      	mov	r6, r0
 8001d78:	682b      	ldr	r3, [r5, #0]
 8001d7a:	05da      	lsls	r2, r3, #23
 8001d7c:	d4d9      	bmi.n	8001d32 <HAL_RCC_OscConfig+0x1d6>
 8001d7e:	f7ff f811 	bl	8000da4 <HAL_GetTick>
 8001d82:	1b80      	subs	r0, r0, r6
 8001d84:	2864      	cmp	r0, #100	; 0x64
 8001d86:	d9f7      	bls.n	8001d78 <HAL_RCC_OscConfig+0x21c>
 8001d88:	e72c      	b.n	8001be4 <HAL_RCC_OscConfig+0x88>
 8001d8a:	b9ab      	cbnz	r3, 8001db8 <HAL_RCC_OscConfig+0x25c>
 8001d8c:	6f2b      	ldr	r3, [r5, #112]	; 0x70
 8001d8e:	f241 3888 	movw	r8, #5000	; 0x1388
 8001d92:	f023 0301 	bic.w	r3, r3, #1
 8001d96:	672b      	str	r3, [r5, #112]	; 0x70
 8001d98:	6f2b      	ldr	r3, [r5, #112]	; 0x70
 8001d9a:	f023 0304 	bic.w	r3, r3, #4
 8001d9e:	672b      	str	r3, [r5, #112]	; 0x70
 8001da0:	f7ff f800 	bl	8000da4 <HAL_GetTick>
 8001da4:	4606      	mov	r6, r0
 8001da6:	6f2b      	ldr	r3, [r5, #112]	; 0x70
 8001da8:	0798      	lsls	r0, r3, #30
 8001daa:	d5d3      	bpl.n	8001d54 <HAL_RCC_OscConfig+0x1f8>
 8001dac:	f7fe fffa 	bl	8000da4 <HAL_GetTick>
 8001db0:	1b80      	subs	r0, r0, r6
 8001db2:	4540      	cmp	r0, r8
 8001db4:	d9f7      	bls.n	8001da6 <HAL_RCC_OscConfig+0x24a>
 8001db6:	e715      	b.n	8001be4 <HAL_RCC_OscConfig+0x88>
 8001db8:	2b05      	cmp	r3, #5
 8001dba:	6f2b      	ldr	r3, [r5, #112]	; 0x70
 8001dbc:	d103      	bne.n	8001dc6 <HAL_RCC_OscConfig+0x26a>
 8001dbe:	f043 0304 	orr.w	r3, r3, #4
 8001dc2:	672b      	str	r3, [r5, #112]	; 0x70
 8001dc4:	e7b9      	b.n	8001d3a <HAL_RCC_OscConfig+0x1de>
 8001dc6:	f023 0301 	bic.w	r3, r3, #1
 8001dca:	672b      	str	r3, [r5, #112]	; 0x70
 8001dcc:	6f2b      	ldr	r3, [r5, #112]	; 0x70
 8001dce:	f023 0304 	bic.w	r3, r3, #4
 8001dd2:	e7b5      	b.n	8001d40 <HAL_RCC_OscConfig+0x1e4>
 8001dd4:	f7fe ffe6 	bl	8000da4 <HAL_GetTick>
 8001dd8:	1b40      	subs	r0, r0, r5
 8001dda:	4540      	cmp	r0, r8
 8001ddc:	d9b7      	bls.n	8001d4e <HAL_RCC_OscConfig+0x1f2>
 8001dde:	e701      	b.n	8001be4 <HAL_RCC_OscConfig+0x88>
 8001de0:	40023800 	.word	0x40023800
 8001de4:	40007000 	.word	0x40007000
 8001de8:	4d3c      	ldr	r5, [pc, #240]	; (8001edc <HAL_RCC_OscConfig+0x380>)
 8001dea:	68ab      	ldr	r3, [r5, #8]
 8001dec:	f003 030c 	and.w	r3, r3, #12
 8001df0:	2b08      	cmp	r3, #8
 8001df2:	d042      	beq.n	8001e7a <HAL_RCC_OscConfig+0x31e>
 8001df4:	682b      	ldr	r3, [r5, #0]
 8001df6:	2a02      	cmp	r2, #2
 8001df8:	f023 7380 	bic.w	r3, r3, #16777216	; 0x1000000
 8001dfc:	602b      	str	r3, [r5, #0]
 8001dfe:	d12f      	bne.n	8001e60 <HAL_RCC_OscConfig+0x304>
 8001e00:	f7fe ffd0 	bl	8000da4 <HAL_GetTick>
 8001e04:	4606      	mov	r6, r0
 8001e06:	682b      	ldr	r3, [r5, #0]
 8001e08:	0199      	lsls	r1, r3, #6
 8001e0a:	d423      	bmi.n	8001e54 <HAL_RCC_OscConfig+0x2f8>
 8001e0c:	e9d4 3207 	ldrd	r3, r2, [r4, #28]
 8001e10:	4313      	orrs	r3, r2
 8001e12:	6a62      	ldr	r2, [r4, #36]	; 0x24
 8001e14:	ea43 1382 	orr.w	r3, r3, r2, lsl #6
 8001e18:	6ae2      	ldr	r2, [r4, #44]	; 0x2c
 8001e1a:	ea43 6302 	orr.w	r3, r3, r2, lsl #24
 8001e1e:	6b22      	ldr	r2, [r4, #48]	; 0x30
 8001e20:	ea43 7302 	orr.w	r3, r3, r2, lsl #28
 8001e24:	6aa2      	ldr	r2, [r4, #40]	; 0x28
 8001e26:	0852      	lsrs	r2, r2, #1
 8001e28:	3a01      	subs	r2, #1
 8001e2a:	ea43 4302 	orr.w	r3, r3, r2, lsl #16
 8001e2e:	606b      	str	r3, [r5, #4]
 8001e30:	682b      	ldr	r3, [r5, #0]
 8001e32:	f043 7380 	orr.w	r3, r3, #16777216	; 0x1000000
 8001e36:	602b      	str	r3, [r5, #0]
 8001e38:	f7fe ffb4 	bl	8000da4 <HAL_GetTick>
 8001e3c:	4d27      	ldr	r5, [pc, #156]	; (8001edc <HAL_RCC_OscConfig+0x380>)
 8001e3e:	4604      	mov	r4, r0
 8001e40:	682b      	ldr	r3, [r5, #0]
 8001e42:	019a      	lsls	r2, r3, #6
 8001e44:	f53f aea0 	bmi.w	8001b88 <HAL_RCC_OscConfig+0x2c>
 8001e48:	f7fe ffac 	bl	8000da4 <HAL_GetTick>
 8001e4c:	1b00      	subs	r0, r0, r4
 8001e4e:	2802      	cmp	r0, #2
 8001e50:	d9f6      	bls.n	8001e40 <HAL_RCC_OscConfig+0x2e4>
 8001e52:	e6c7      	b.n	8001be4 <HAL_RCC_OscConfig+0x88>
 8001e54:	f7fe ffa6 	bl	8000da4 <HAL_GetTick>
 8001e58:	1b80      	subs	r0, r0, r6
 8001e5a:	2802      	cmp	r0, #2
 8001e5c:	d9d3      	bls.n	8001e06 <HAL_RCC_OscConfig+0x2aa>
 8001e5e:	e6c1      	b.n	8001be4 <HAL_RCC_OscConfig+0x88>
 8001e60:	f7fe ffa0 	bl	8000da4 <HAL_GetTick>
 8001e64:	4604      	mov	r4, r0
 8001e66:	682b      	ldr	r3, [r5, #0]
 8001e68:	019b      	lsls	r3, r3, #6
 8001e6a:	f57f ae8d 	bpl.w	8001b88 <HAL_RCC_OscConfig+0x2c>
 8001e6e:	f7fe ff99 	bl	8000da4 <HAL_GetTick>
 8001e72:	1b00      	subs	r0, r0, r4
 8001e74:	2802      	cmp	r0, #2
 8001e76:	d9f6      	bls.n	8001e66 <HAL_RCC_OscConfig+0x30a>
 8001e78:	e6b4      	b.n	8001be4 <HAL_RCC_OscConfig+0x88>
 8001e7a:	2a01      	cmp	r2, #1
 8001e7c:	686b      	ldr	r3, [r5, #4]
 8001e7e:	f43f ae9a 	beq.w	8001bb6 <HAL_RCC_OscConfig+0x5a>
 8001e82:	f403 0280 	and.w	r2, r3, #4194304	; 0x400000
 8001e86:	69e1      	ldr	r1, [r4, #28]
 8001e88:	428a      	cmp	r2, r1
 8001e8a:	f47f ae94 	bne.w	8001bb6 <HAL_RCC_OscConfig+0x5a>
 8001e8e:	f003 023f 	and.w	r2, r3, #63	; 0x3f
 8001e92:	6a21      	ldr	r1, [r4, #32]
 8001e94:	428a      	cmp	r2, r1
 8001e96:	f47f ae8e 	bne.w	8001bb6 <HAL_RCC_OscConfig+0x5a>
 8001e9a:	f647 72c0 	movw	r2, #32704	; 0x7fc0
 8001e9e:	6a61      	ldr	r1, [r4, #36]	; 0x24
 8001ea0:	401a      	ands	r2, r3
 8001ea2:	ebb2 1f81 	cmp.w	r2, r1, lsl #6
 8001ea6:	f47f ae86 	bne.w	8001bb6 <HAL_RCC_OscConfig+0x5a>
 8001eaa:	6aa2      	ldr	r2, [r4, #40]	; 0x28
 8001eac:	f403 3140 	and.w	r1, r3, #196608	; 0x30000
 8001eb0:	0852      	lsrs	r2, r2, #1
 8001eb2:	3a01      	subs	r2, #1
 8001eb4:	ebb1 4f02 	cmp.w	r1, r2, lsl #16
 8001eb8:	f47f ae7d 	bne.w	8001bb6 <HAL_RCC_OscConfig+0x5a>
 8001ebc:	f003 6270 	and.w	r2, r3, #251658240	; 0xf000000
 8001ec0:	6ae1      	ldr	r1, [r4, #44]	; 0x2c
 8001ec2:	ebb2 6f01 	cmp.w	r2, r1, lsl #24
 8001ec6:	f47f ae76 	bne.w	8001bb6 <HAL_RCC_OscConfig+0x5a>
 8001eca:	f003 43e0 	and.w	r3, r3, #1879048192	; 0x70000000
 8001ece:	6b22      	ldr	r2, [r4, #48]	; 0x30
 8001ed0:	ebb3 7f02 	cmp.w	r3, r2, lsl #28
 8001ed4:	f43f ae58 	beq.w	8001b88 <HAL_RCC_OscConfig+0x2c>
 8001ed8:	e66d      	b.n	8001bb6 <HAL_RCC_OscConfig+0x5a>
 8001eda:	bf00      	nop
 8001edc:	40023800 	.word	0x40023800

08001ee0 <HAL_RCC_GetSysClockFreq>:
 8001ee0:	4913      	ldr	r1, [pc, #76]	; (8001f30 <HAL_RCC_GetSysClockFreq+0x50>)
 8001ee2:	b508      	push	{r3, lr}
 8001ee4:	688b      	ldr	r3, [r1, #8]
 8001ee6:	f003 030c 	and.w	r3, r3, #12
 8001eea:	2b04      	cmp	r3, #4
 8001eec:	d01b      	beq.n	8001f26 <HAL_RCC_GetSysClockFreq+0x46>
 8001eee:	2b08      	cmp	r3, #8
 8001ef0:	d11b      	bne.n	8001f2a <HAL_RCC_GetSysClockFreq+0x4a>
 8001ef2:	684a      	ldr	r2, [r1, #4]
 8001ef4:	684b      	ldr	r3, [r1, #4]
 8001ef6:	6849      	ldr	r1, [r1, #4]
 8001ef8:	f002 023f 	and.w	r2, r2, #63	; 0x3f
 8001efc:	f413 0380 	ands.w	r3, r3, #4194304	; 0x400000
 8001f00:	f3c1 1188 	ubfx	r1, r1, #6, #9
 8001f04:	bf1a      	itte	ne
 8001f06:	480b      	ldrne	r0, [pc, #44]	; (8001f34 <HAL_RCC_GetSysClockFreq+0x54>)
 8001f08:	2300      	movne	r3, #0
 8001f0a:	480b      	ldreq	r0, [pc, #44]	; (8001f38 <HAL_RCC_GetSysClockFreq+0x58>)
 8001f0c:	fba1 0100 	umull	r0, r1, r1, r0
 8001f10:	f7fe f9ee 	bl	80002f0 <__aeabi_uldivmod>
 8001f14:	4b06      	ldr	r3, [pc, #24]	; (8001f30 <HAL_RCC_GetSysClockFreq+0x50>)
 8001f16:	685b      	ldr	r3, [r3, #4]
 8001f18:	f3c3 4301 	ubfx	r3, r3, #16, #2
 8001f1c:	3301      	adds	r3, #1
 8001f1e:	005b      	lsls	r3, r3, #1
 8001f20:	fbb0 f0f3 	udiv	r0, r0, r3
 8001f24:	bd08      	pop	{r3, pc}
 8001f26:	4803      	ldr	r0, [pc, #12]	; (8001f34 <HAL_RCC_GetSysClockFreq+0x54>)
 8001f28:	e7fc      	b.n	8001f24 <HAL_RCC_GetSysClockFreq+0x44>
 8001f2a:	4803      	ldr	r0, [pc, #12]	; (8001f38 <HAL_RCC_GetSysClockFreq+0x58>)
 8001f2c:	e7fa      	b.n	8001f24 <HAL_RCC_GetSysClockFreq+0x44>
 8001f2e:	bf00      	nop
 8001f30:	40023800 	.word	0x40023800
 8001f34:	007a1200 	.word	0x007a1200
 8001f38:	00f42400 	.word	0x00f42400

08001f3c <HAL_RCC_ClockConfig>:
 8001f3c:	e92d 41f0 	stmdb	sp!, {r4, r5, r6, r7, r8, lr}
 8001f40:	460d      	mov	r5, r1
 8001f42:	4604      	mov	r4, r0
 8001f44:	b910      	cbnz	r0, 8001f4c <HAL_RCC_ClockConfig+0x10>
 8001f46:	2001      	movs	r0, #1
 8001f48:	e8bd 81f0 	ldmia.w	sp!, {r4, r5, r6, r7, r8, pc}
 8001f4c:	4a45      	ldr	r2, [pc, #276]	; (8002064 <HAL_RCC_ClockConfig+0x128>)
 8001f4e:	6813      	ldr	r3, [r2, #0]
 8001f50:	f003 030f 	and.w	r3, r3, #15
 8001f54:	428b      	cmp	r3, r1
 8001f56:	d328      	bcc.n	8001faa <HAL_RCC_ClockConfig+0x6e>
 8001f58:	6821      	ldr	r1, [r4, #0]
 8001f5a:	078f      	lsls	r7, r1, #30
 8001f5c:	d430      	bmi.n	8001fc0 <HAL_RCC_ClockConfig+0x84>
 8001f5e:	07c8      	lsls	r0, r1, #31
 8001f60:	d443      	bmi.n	8001fea <HAL_RCC_ClockConfig+0xae>
 8001f62:	4a40      	ldr	r2, [pc, #256]	; (8002064 <HAL_RCC_ClockConfig+0x128>)
 8001f64:	6813      	ldr	r3, [r2, #0]
 8001f66:	f003 030f 	and.w	r3, r3, #15
 8001f6a:	42ab      	cmp	r3, r5
 8001f6c:	d866      	bhi.n	800203c <HAL_RCC_ClockConfig+0x100>
 8001f6e:	6822      	ldr	r2, [r4, #0]
 8001f70:	0751      	lsls	r1, r2, #29
 8001f72:	d46f      	bmi.n	8002054 <HAL_RCC_ClockConfig+0x118>
 8001f74:	0713      	lsls	r3, r2, #28
 8001f76:	d507      	bpl.n	8001f88 <HAL_RCC_ClockConfig+0x4c>
 8001f78:	4a3b      	ldr	r2, [pc, #236]	; (8002068 <HAL_RCC_ClockConfig+0x12c>)
 8001f7a:	6921      	ldr	r1, [r4, #16]
 8001f7c:	6893      	ldr	r3, [r2, #8]
 8001f7e:	f423 4360 	bic.w	r3, r3, #57344	; 0xe000
 8001f82:	ea43 03c1 	orr.w	r3, r3, r1, lsl #3
 8001f86:	6093      	str	r3, [r2, #8]
 8001f88:	f7ff ffaa 	bl	8001ee0 <HAL_RCC_GetSysClockFreq>
 8001f8c:	4b36      	ldr	r3, [pc, #216]	; (8002068 <HAL_RCC_ClockConfig+0x12c>)
 8001f8e:	4a37      	ldr	r2, [pc, #220]	; (800206c <HAL_RCC_ClockConfig+0x130>)
 8001f90:	689b      	ldr	r3, [r3, #8]
 8001f92:	f3c3 1303 	ubfx	r3, r3, #4, #4
 8001f96:	5cd3      	ldrb	r3, [r2, r3]
 8001f98:	40d8      	lsrs	r0, r3
 8001f9a:	4b35      	ldr	r3, [pc, #212]	; (8002070 <HAL_RCC_ClockConfig+0x134>)
 8001f9c:	6018      	str	r0, [r3, #0]
 8001f9e:	4b35      	ldr	r3, [pc, #212]	; (8002074 <HAL_RCC_ClockConfig+0x138>)
 8001fa0:	6818      	ldr	r0, [r3, #0]
 8001fa2:	f7fe fec3 	bl	8000d2c <HAL_InitTick>
 8001fa6:	2000      	movs	r0, #0
 8001fa8:	e7ce      	b.n	8001f48 <HAL_RCC_ClockConfig+0xc>
 8001faa:	6813      	ldr	r3, [r2, #0]
 8001fac:	f023 030f 	bic.w	r3, r3, #15
 8001fb0:	430b      	orrs	r3, r1
 8001fb2:	6013      	str	r3, [r2, #0]
 8001fb4:	6813      	ldr	r3, [r2, #0]
 8001fb6:	f003 030f 	and.w	r3, r3, #15
 8001fba:	428b      	cmp	r3, r1
 8001fbc:	d1c3      	bne.n	8001f46 <HAL_RCC_ClockConfig+0xa>
 8001fbe:	e7cb      	b.n	8001f58 <HAL_RCC_ClockConfig+0x1c>
 8001fc0:	f011 0f04 	tst.w	r1, #4
 8001fc4:	4b28      	ldr	r3, [pc, #160]	; (8002068 <HAL_RCC_ClockConfig+0x12c>)
 8001fc6:	d003      	beq.n	8001fd0 <HAL_RCC_ClockConfig+0x94>
 8001fc8:	689a      	ldr	r2, [r3, #8]
 8001fca:	f442 52e0 	orr.w	r2, r2, #7168	; 0x1c00
 8001fce:	609a      	str	r2, [r3, #8]
 8001fd0:	070e      	lsls	r6, r1, #28
 8001fd2:	d503      	bpl.n	8001fdc <HAL_RCC_ClockConfig+0xa0>
 8001fd4:	689a      	ldr	r2, [r3, #8]
 8001fd6:	f442 4260 	orr.w	r2, r2, #57344	; 0xe000
 8001fda:	609a      	str	r2, [r3, #8]
 8001fdc:	689a      	ldr	r2, [r3, #8]
 8001fde:	68a0      	ldr	r0, [r4, #8]
 8001fe0:	f022 02f0 	bic.w	r2, r2, #240	; 0xf0
 8001fe4:	4302      	orrs	r2, r0
 8001fe6:	609a      	str	r2, [r3, #8]
 8001fe8:	e7b9      	b.n	8001f5e <HAL_RCC_ClockConfig+0x22>
 8001fea:	6861      	ldr	r1, [r4, #4]
 8001fec:	4b1e      	ldr	r3, [pc, #120]	; (8002068 <HAL_RCC_ClockConfig+0x12c>)
 8001fee:	2901      	cmp	r1, #1
 8001ff0:	681a      	ldr	r2, [r3, #0]
 8001ff2:	d11b      	bne.n	800202c <HAL_RCC_ClockConfig+0xf0>
 8001ff4:	f412 3f00 	tst.w	r2, #131072	; 0x20000
 8001ff8:	d0a5      	beq.n	8001f46 <HAL_RCC_ClockConfig+0xa>
 8001ffa:	689a      	ldr	r2, [r3, #8]
 8001ffc:	f241 3888 	movw	r8, #5000	; 0x1388
 8002000:	4f19      	ldr	r7, [pc, #100]	; (8002068 <HAL_RCC_ClockConfig+0x12c>)
 8002002:	f022 0203 	bic.w	r2, r2, #3
 8002006:	430a      	orrs	r2, r1
 8002008:	609a      	str	r2, [r3, #8]
 800200a:	f7fe fecb 	bl	8000da4 <HAL_GetTick>
 800200e:	4606      	mov	r6, r0
 8002010:	68bb      	ldr	r3, [r7, #8]
 8002012:	6862      	ldr	r2, [r4, #4]
 8002014:	f003 030c 	and.w	r3, r3, #12
 8002018:	ebb3 0f82 	cmp.w	r3, r2, lsl #2
 800201c:	d0a1      	beq.n	8001f62 <HAL_RCC_ClockConfig+0x26>
 800201e:	f7fe fec1 	bl	8000da4 <HAL_GetTick>
 8002022:	1b80      	subs	r0, r0, r6
 8002024:	4540      	cmp	r0, r8
 8002026:	d9f3      	bls.n	8002010 <HAL_RCC_ClockConfig+0xd4>
 8002028:	2003      	movs	r0, #3
 800202a:	e78d      	b.n	8001f48 <HAL_RCC_ClockConfig+0xc>
 800202c:	2902      	cmp	r1, #2
 800202e:	d102      	bne.n	8002036 <HAL_RCC_ClockConfig+0xfa>
 8002030:	f012 7f00 	tst.w	r2, #33554432	; 0x2000000
 8002034:	e7e0      	b.n	8001ff8 <HAL_RCC_ClockConfig+0xbc>
 8002036:	f012 0f02 	tst.w	r2, #2
 800203a:	e7dd      	b.n	8001ff8 <HAL_RCC_ClockConfig+0xbc>
 800203c:	6813      	ldr	r3, [r2, #0]
 800203e:	f023 030f 	bic.w	r3, r3, #15
 8002042:	432b      	orrs	r3, r5
 8002044:	6013      	str	r3, [r2, #0]
 8002046:	6813      	ldr	r3, [r2, #0]
 8002048:	f003 030f 	and.w	r3, r3, #15
 800204c:	42ab      	cmp	r3, r5
 800204e:	f47f af7a 	bne.w	8001f46 <HAL_RCC_ClockConfig+0xa>
 8002052:	e78c      	b.n	8001f6e <HAL_RCC_ClockConfig+0x32>
 8002054:	4904      	ldr	r1, [pc, #16]	; (8002068 <HAL_RCC_ClockConfig+0x12c>)
 8002056:	68e0      	ldr	r0, [r4, #12]
 8002058:	688b      	ldr	r3, [r1, #8]
 800205a:	f423 53e0 	bic.w	r3, r3, #7168	; 0x1c00
 800205e:	4303      	orrs	r3, r0
 8002060:	608b      	str	r3, [r1, #8]
 8002062:	e787      	b.n	8001f74 <HAL_RCC_ClockConfig+0x38>
 8002064:	40023c00 	.word	0x40023c00
 8002068:	40023800 	.word	0x40023800
 800206c:	08005703 	.word	0x08005703
 8002070:	20000000 	.word	0x20000000
 8002074:	20000008 	.word	0x20000008

08002078 <HAL_RCC_GetPCLK1Freq>:
 8002078:	4b04      	ldr	r3, [pc, #16]	; (800208c <HAL_RCC_GetPCLK1Freq+0x14>)
 800207a:	4a05      	ldr	r2, [pc, #20]	; (8002090 <HAL_RCC_GetPCLK1Freq+0x18>)
 800207c:	689b      	ldr	r3, [r3, #8]
 800207e:	f3c3 2382 	ubfx	r3, r3, #10, #3
 8002082:	5cd3      	ldrb	r3, [r2, r3]
 8002084:	4a03      	ldr	r2, [pc, #12]	; (8002094 <HAL_RCC_GetPCLK1Freq+0x1c>)
 8002086:	6810      	ldr	r0, [r2, #0]
 8002088:	40d8      	lsrs	r0, r3
 800208a:	4770      	bx	lr
 800208c:	40023800 	.word	0x40023800
 8002090:	08005713 	.word	0x08005713
 8002094:	20000000 	.word	0x20000000

08002098 <HAL_RCC_GetPCLK2Freq>:
 8002098:	4b04      	ldr	r3, [pc, #16]	; (80020ac <HAL_RCC_GetPCLK2Freq+0x14>)
 800209a:	4a05      	ldr	r2, [pc, #20]	; (80020b0 <HAL_RCC_GetPCLK2Freq+0x18>)
 800209c:	689b      	ldr	r3, [r3, #8]
 800209e:	f3c3 3342 	ubfx	r3, r3, #13, #3
 80020a2:	5cd3      	ldrb	r3, [r2, r3]
 80020a4:	4a03      	ldr	r2, [pc, #12]	; (80020b4 <HAL_RCC_GetPCLK2Freq+0x1c>)
 80020a6:	6810      	ldr	r0, [r2, #0]
 80020a8:	40d8      	lsrs	r0, r3
 80020aa:	4770      	bx	lr
 80020ac:	40023800 	.word	0x40023800
 80020b0:	08005713 	.word	0x08005713
 80020b4:	20000000 	.word	0x20000000

080020b8 <HAL_RCCEx_PeriphCLKConfig>:
 80020b8:	6803      	ldr	r3, [r0, #0]
 80020ba:	e92d 43f7 	stmdb	sp!, {r0, r1, r2, r4, r5, r6, r7, r8, r9, lr}
 80020be:	f013 0601 	ands.w	r6, r3, #1
 80020c2:	4604      	mov	r4, r0
 80020c4:	d00b      	beq.n	80020de <HAL_RCCEx_PeriphCLKConfig+0x26>
 80020c6:	4ab2      	ldr	r2, [pc, #712]	; (8002390 <HAL_RCCEx_PeriphCLKConfig+0x2d8>)
 80020c8:	6891      	ldr	r1, [r2, #8]
 80020ca:	f421 0100 	bic.w	r1, r1, #8388608	; 0x800000
 80020ce:	6091      	str	r1, [r2, #8]
 80020d0:	6b46      	ldr	r6, [r0, #52]	; 0x34
 80020d2:	6891      	ldr	r1, [r2, #8]
 80020d4:	4331      	orrs	r1, r6
 80020d6:	fab6 f686 	clz	r6, r6
 80020da:	0976      	lsrs	r6, r6, #5
 80020dc:	6091      	str	r1, [r2, #8]
 80020de:	f413 2500 	ands.w	r5, r3, #524288	; 0x80000
 80020e2:	d012      	beq.n	800210a <HAL_RCCEx_PeriphCLKConfig+0x52>
 80020e4:	49aa      	ldr	r1, [pc, #680]	; (8002390 <HAL_RCCEx_PeriphCLKConfig+0x2d8>)
 80020e6:	6be5      	ldr	r5, [r4, #60]	; 0x3c
 80020e8:	f8d1 208c 	ldr.w	r2, [r1, #140]	; 0x8c
 80020ec:	f5b5 1f80 	cmp.w	r5, #1048576	; 0x100000
 80020f0:	f422 1240 	bic.w	r2, r2, #3145728	; 0x300000
 80020f4:	bf08      	it	eq
 80020f6:	2601      	moveq	r6, #1
 80020f8:	ea42 0205 	orr.w	r2, r2, r5
 80020fc:	bf16      	itet	ne
 80020fe:	fab5 f585 	clzne	r5, r5
 8002102:	2500      	moveq	r5, #0
 8002104:	096d      	lsrne	r5, r5, #5
 8002106:	f8c1 208c 	str.w	r2, [r1, #140]	; 0x8c
 800210a:	02df      	lsls	r7, r3, #11
 800210c:	d510      	bpl.n	8002130 <HAL_RCCEx_PeriphCLKConfig+0x78>
 800210e:	48a0      	ldr	r0, [pc, #640]	; (8002390 <HAL_RCCEx_PeriphCLKConfig+0x2d8>)
 8002110:	6c21      	ldr	r1, [r4, #64]	; 0x40
 8002112:	f8d0 208c 	ldr.w	r2, [r0, #140]	; 0x8c
 8002116:	f5b1 0f80 	cmp.w	r1, #4194304	; 0x400000
 800211a:	f422 0240 	bic.w	r2, r2, #12582912	; 0xc00000
 800211e:	ea42 0201 	orr.w	r2, r2, r1
 8002122:	f8c0 208c 	str.w	r2, [r0, #140]	; 0x8c
 8002126:	f000 81a8 	beq.w	800247a <HAL_RCCEx_PeriphCLKConfig+0x3c2>
 800212a:	2900      	cmp	r1, #0
 800212c:	bf08      	it	eq
 800212e:	2501      	moveq	r5, #1
 8002130:	f013 7f80 	tst.w	r3, #16777216	; 0x1000000
 8002134:	bf18      	it	ne
 8002136:	2601      	movne	r6, #1
 8002138:	0698      	lsls	r0, r3, #26
 800213a:	d532      	bpl.n	80021a2 <HAL_RCCEx_PeriphCLKConfig+0xea>
 800213c:	4b94      	ldr	r3, [pc, #592]	; (8002390 <HAL_RCCEx_PeriphCLKConfig+0x2d8>)
 800213e:	4f95      	ldr	r7, [pc, #596]	; (8002394 <HAL_RCCEx_PeriphCLKConfig+0x2dc>)
 8002140:	6c1a      	ldr	r2, [r3, #64]	; 0x40
 8002142:	f042 5280 	orr.w	r2, r2, #268435456	; 0x10000000
 8002146:	641a      	str	r2, [r3, #64]	; 0x40
 8002148:	6c1b      	ldr	r3, [r3, #64]	; 0x40
 800214a:	f003 5380 	and.w	r3, r3, #268435456	; 0x10000000
 800214e:	9301      	str	r3, [sp, #4]
 8002150:	9b01      	ldr	r3, [sp, #4]
 8002152:	683b      	ldr	r3, [r7, #0]
 8002154:	f443 7380 	orr.w	r3, r3, #256	; 0x100
 8002158:	603b      	str	r3, [r7, #0]
 800215a:	f7fe fe23 	bl	8000da4 <HAL_GetTick>
 800215e:	4680      	mov	r8, r0
 8002160:	683b      	ldr	r3, [r7, #0]
 8002162:	05d9      	lsls	r1, r3, #23
 8002164:	f140 818b 	bpl.w	800247e <HAL_RCCEx_PeriphCLKConfig+0x3c6>
 8002168:	4f89      	ldr	r7, [pc, #548]	; (8002390 <HAL_RCCEx_PeriphCLKConfig+0x2d8>)
 800216a:	6b22      	ldr	r2, [r4, #48]	; 0x30
 800216c:	6f3b      	ldr	r3, [r7, #112]	; 0x70
 800216e:	f413 7340 	ands.w	r3, r3, #768	; 0x300
 8002172:	f040 818f 	bne.w	8002494 <HAL_RCCEx_PeriphCLKConfig+0x3dc>
 8002176:	6b23      	ldr	r3, [r4, #48]	; 0x30
 8002178:	f403 7240 	and.w	r2, r3, #768	; 0x300
 800217c:	f5b2 7f40 	cmp.w	r2, #768	; 0x300
 8002180:	4a83      	ldr	r2, [pc, #524]	; (8002390 <HAL_RCCEx_PeriphCLKConfig+0x2d8>)
 8002182:	f040 81ac 	bne.w	80024de <HAL_RCCEx_PeriphCLKConfig+0x426>
 8002186:	6891      	ldr	r1, [r2, #8]
 8002188:	f023 4070 	bic.w	r0, r3, #4026531840	; 0xf0000000
 800218c:	f421 11f8 	bic.w	r1, r1, #2031616	; 0x1f0000
 8002190:	f420 7040 	bic.w	r0, r0, #768	; 0x300
 8002194:	4301      	orrs	r1, r0
 8002196:	6091      	str	r1, [r2, #8]
 8002198:	f3c3 030b 	ubfx	r3, r3, #0, #12
 800219c:	6f11      	ldr	r1, [r2, #112]	; 0x70
 800219e:	430b      	orrs	r3, r1
 80021a0:	6713      	str	r3, [r2, #112]	; 0x70
 80021a2:	6823      	ldr	r3, [r4, #0]
 80021a4:	06df      	lsls	r7, r3, #27
 80021a6:	d50c      	bpl.n	80021c2 <HAL_RCCEx_PeriphCLKConfig+0x10a>
 80021a8:	4a79      	ldr	r2, [pc, #484]	; (8002390 <HAL_RCCEx_PeriphCLKConfig+0x2d8>)
 80021aa:	f8d2 108c 	ldr.w	r1, [r2, #140]	; 0x8c
 80021ae:	f021 7180 	bic.w	r1, r1, #16777216	; 0x1000000
 80021b2:	f8c2 108c 	str.w	r1, [r2, #140]	; 0x8c
 80021b6:	f8d2 108c 	ldr.w	r1, [r2, #140]	; 0x8c
 80021ba:	6ba0      	ldr	r0, [r4, #56]	; 0x38
 80021bc:	4301      	orrs	r1, r0
 80021be:	f8c2 108c 	str.w	r1, [r2, #140]	; 0x8c
 80021c2:	0458      	lsls	r0, r3, #17
 80021c4:	d508      	bpl.n	80021d8 <HAL_RCCEx_PeriphCLKConfig+0x120>
 80021c6:	4972      	ldr	r1, [pc, #456]	; (8002390 <HAL_RCCEx_PeriphCLKConfig+0x2d8>)
 80021c8:	6e60      	ldr	r0, [r4, #100]	; 0x64
 80021ca:	f8d1 2090 	ldr.w	r2, [r1, #144]	; 0x90
 80021ce:	f422 3240 	bic.w	r2, r2, #196608	; 0x30000
 80021d2:	4302      	orrs	r2, r0
 80021d4:	f8c1 2090 	str.w	r2, [r1, #144]	; 0x90
 80021d8:	0419      	lsls	r1, r3, #16
 80021da:	d508      	bpl.n	80021ee <HAL_RCCEx_PeriphCLKConfig+0x136>
 80021dc:	496c      	ldr	r1, [pc, #432]	; (8002390 <HAL_RCCEx_PeriphCLKConfig+0x2d8>)
 80021de:	6ea0      	ldr	r0, [r4, #104]	; 0x68
 80021e0:	f8d1 2090 	ldr.w	r2, [r1, #144]	; 0x90
 80021e4:	f422 2240 	bic.w	r2, r2, #786432	; 0xc0000
 80021e8:	4302      	orrs	r2, r0
 80021ea:	f8c1 2090 	str.w	r2, [r1, #144]	; 0x90
 80021ee:	03da      	lsls	r2, r3, #15
 80021f0:	d508      	bpl.n	8002204 <HAL_RCCEx_PeriphCLKConfig+0x14c>
 80021f2:	4967      	ldr	r1, [pc, #412]	; (8002390 <HAL_RCCEx_PeriphCLKConfig+0x2d8>)
 80021f4:	6ee0      	ldr	r0, [r4, #108]	; 0x6c
 80021f6:	f8d1 2090 	ldr.w	r2, [r1, #144]	; 0x90
 80021fa:	f422 1240 	bic.w	r2, r2, #3145728	; 0x300000
 80021fe:	4302      	orrs	r2, r0
 8002200:	f8c1 2090 	str.w	r2, [r1, #144]	; 0x90
 8002204:	039f      	lsls	r7, r3, #14
 8002206:	d508      	bpl.n	800221a <HAL_RCCEx_PeriphCLKConfig+0x162>
 8002208:	4961      	ldr	r1, [pc, #388]	; (8002390 <HAL_RCCEx_PeriphCLKConfig+0x2d8>)
 800220a:	6f20      	ldr	r0, [r4, #112]	; 0x70
 800220c:	f8d1 2090 	ldr.w	r2, [r1, #144]	; 0x90
 8002210:	f422 0240 	bic.w	r2, r2, #12582912	; 0xc00000
 8002214:	4302      	orrs	r2, r0
 8002216:	f8c1 2090 	str.w	r2, [r1, #144]	; 0x90
 800221a:	0658      	lsls	r0, r3, #25
 800221c:	d508      	bpl.n	8002230 <HAL_RCCEx_PeriphCLKConfig+0x178>
 800221e:	495c      	ldr	r1, [pc, #368]	; (8002390 <HAL_RCCEx_PeriphCLKConfig+0x2d8>)
 8002220:	6c60      	ldr	r0, [r4, #68]	; 0x44
 8002222:	f8d1 2090 	ldr.w	r2, [r1, #144]	; 0x90
 8002226:	f022 0203 	bic.w	r2, r2, #3
 800222a:	4302      	orrs	r2, r0
 800222c:	f8c1 2090 	str.w	r2, [r1, #144]	; 0x90
 8002230:	0619      	lsls	r1, r3, #24
 8002232:	d508      	bpl.n	8002246 <HAL_RCCEx_PeriphCLKConfig+0x18e>
 8002234:	4956      	ldr	r1, [pc, #344]	; (8002390 <HAL_RCCEx_PeriphCLKConfig+0x2d8>)
 8002236:	6ca0      	ldr	r0, [r4, #72]	; 0x48
 8002238:	f8d1 2090 	ldr.w	r2, [r1, #144]	; 0x90
 800223c:	f022 020c 	bic.w	r2, r2, #12
 8002240:	4302      	orrs	r2, r0
 8002242:	f8c1 2090 	str.w	r2, [r1, #144]	; 0x90
 8002246:	05da      	lsls	r2, r3, #23
 8002248:	d508      	bpl.n	800225c <HAL_RCCEx_PeriphCLKConfig+0x1a4>
 800224a:	4951      	ldr	r1, [pc, #324]	; (8002390 <HAL_RCCEx_PeriphCLKConfig+0x2d8>)
 800224c:	6ce0      	ldr	r0, [r4, #76]	; 0x4c
 800224e:	f8d1 2090 	ldr.w	r2, [r1, #144]	; 0x90
 8002252:	f022 0230 	bic.w	r2, r2, #48	; 0x30
 8002256:	4302      	orrs	r2, r0
 8002258:	f8c1 2090 	str.w	r2, [r1, #144]	; 0x90
 800225c:	059f      	lsls	r7, r3, #22
 800225e:	d508      	bpl.n	8002272 <HAL_RCCEx_PeriphCLKConfig+0x1ba>
 8002260:	494b      	ldr	r1, [pc, #300]	; (8002390 <HAL_RCCEx_PeriphCLKConfig+0x2d8>)
 8002262:	6d20      	ldr	r0, [r4, #80]	; 0x50
 8002264:	f8d1 2090 	ldr.w	r2, [r1, #144]	; 0x90
 8002268:	f022 02c0 	bic.w	r2, r2, #192	; 0xc0
 800226c:	4302      	orrs	r2, r0
 800226e:	f8c1 2090 	str.w	r2, [r1, #144]	; 0x90
 8002272:	0558      	lsls	r0, r3, #21
 8002274:	d508      	bpl.n	8002288 <HAL_RCCEx_PeriphCLKConfig+0x1d0>
 8002276:	4946      	ldr	r1, [pc, #280]	; (8002390 <HAL_RCCEx_PeriphCLKConfig+0x2d8>)
 8002278:	6d60      	ldr	r0, [r4, #84]	; 0x54
 800227a:	f8d1 2090 	ldr.w	r2, [r1, #144]	; 0x90
 800227e:	f422 7240 	bic.w	r2, r2, #768	; 0x300
 8002282:	4302      	orrs	r2, r0
 8002284:	f8c1 2090 	str.w	r2, [r1, #144]	; 0x90
 8002288:	0519      	lsls	r1, r3, #20
 800228a:	d508      	bpl.n	800229e <HAL_RCCEx_PeriphCLKConfig+0x1e6>
 800228c:	4940      	ldr	r1, [pc, #256]	; (8002390 <HAL_RCCEx_PeriphCLKConfig+0x2d8>)
 800228e:	6da0      	ldr	r0, [r4, #88]	; 0x58
 8002290:	f8d1 2090 	ldr.w	r2, [r1, #144]	; 0x90
 8002294:	f422 6240 	bic.w	r2, r2, #3072	; 0xc00
 8002298:	4302      	orrs	r2, r0
 800229a:	f8c1 2090 	str.w	r2, [r1, #144]	; 0x90
 800229e:	04da      	lsls	r2, r3, #19
 80022a0:	d508      	bpl.n	80022b4 <HAL_RCCEx_PeriphCLKConfig+0x1fc>
 80022a2:	493b      	ldr	r1, [pc, #236]	; (8002390 <HAL_RCCEx_PeriphCLKConfig+0x2d8>)
 80022a4:	6de0      	ldr	r0, [r4, #92]	; 0x5c
 80022a6:	f8d1 2090 	ldr.w	r2, [r1, #144]	; 0x90
 80022aa:	f422 5240 	bic.w	r2, r2, #12288	; 0x3000
 80022ae:	4302      	orrs	r2, r0
 80022b0:	f8c1 2090 	str.w	r2, [r1, #144]	; 0x90
 80022b4:	049f      	lsls	r7, r3, #18
 80022b6:	d508      	bpl.n	80022ca <HAL_RCCEx_PeriphCLKConfig+0x212>
 80022b8:	4935      	ldr	r1, [pc, #212]	; (8002390 <HAL_RCCEx_PeriphCLKConfig+0x2d8>)
 80022ba:	6e20      	ldr	r0, [r4, #96]	; 0x60
 80022bc:	f8d1 2090 	ldr.w	r2, [r1, #144]	; 0x90
 80022c0:	f422 4240 	bic.w	r2, r2, #49152	; 0xc000
 80022c4:	4302      	orrs	r2, r0
 80022c6:	f8c1 2090 	str.w	r2, [r1, #144]	; 0x90
 80022ca:	0258      	lsls	r0, r3, #9
 80022cc:	d508      	bpl.n	80022e0 <HAL_RCCEx_PeriphCLKConfig+0x228>
 80022ce:	4930      	ldr	r1, [pc, #192]	; (8002390 <HAL_RCCEx_PeriphCLKConfig+0x2d8>)
 80022d0:	6fa0      	ldr	r0, [r4, #120]	; 0x78
 80022d2:	f8d1 2090 	ldr.w	r2, [r1, #144]	; 0x90
 80022d6:	f022 6280 	bic.w	r2, r2, #67108864	; 0x4000000
 80022da:	4302      	orrs	r2, r0
 80022dc:	f8c1 2090 	str.w	r2, [r1, #144]	; 0x90
 80022e0:	0299      	lsls	r1, r3, #10
 80022e2:	d50c      	bpl.n	80022fe <HAL_RCCEx_PeriphCLKConfig+0x246>
 80022e4:	482a      	ldr	r0, [pc, #168]	; (8002390 <HAL_RCCEx_PeriphCLKConfig+0x2d8>)
 80022e6:	6fe1      	ldr	r1, [r4, #124]	; 0x7c
 80022e8:	f8d0 2090 	ldr.w	r2, [r0, #144]	; 0x90
 80022ec:	f1b1 6f00 	cmp.w	r1, #134217728	; 0x8000000
 80022f0:	f022 6200 	bic.w	r2, r2, #134217728	; 0x8000000
 80022f4:	bf08      	it	eq
 80022f6:	2501      	moveq	r5, #1
 80022f8:	430a      	orrs	r2, r1
 80022fa:	f8c0 2090 	str.w	r2, [r0, #144]	; 0x90
 80022fe:	f013 0f08 	tst.w	r3, #8
 8002302:	bf18      	it	ne
 8002304:	2501      	movne	r5, #1
 8002306:	035a      	lsls	r2, r3, #13
 8002308:	d508      	bpl.n	800231c <HAL_RCCEx_PeriphCLKConfig+0x264>
 800230a:	4921      	ldr	r1, [pc, #132]	; (8002390 <HAL_RCCEx_PeriphCLKConfig+0x2d8>)
 800230c:	6f60      	ldr	r0, [r4, #116]	; 0x74
 800230e:	f8d1 2090 	ldr.w	r2, [r1, #144]	; 0x90
 8002312:	f022 7240 	bic.w	r2, r2, #50331648	; 0x3000000
 8002316:	4302      	orrs	r2, r0
 8002318:	f8c1 2090 	str.w	r2, [r1, #144]	; 0x90
 800231c:	021f      	lsls	r7, r3, #8
 800231e:	d509      	bpl.n	8002334 <HAL_RCCEx_PeriphCLKConfig+0x27c>
 8002320:	491b      	ldr	r1, [pc, #108]	; (8002390 <HAL_RCCEx_PeriphCLKConfig+0x2d8>)
 8002322:	f8d4 0080 	ldr.w	r0, [r4, #128]	; 0x80
 8002326:	f8d1 2090 	ldr.w	r2, [r1, #144]	; 0x90
 800232a:	f022 5280 	bic.w	r2, r2, #268435456	; 0x10000000
 800232e:	4302      	orrs	r2, r0
 8002330:	f8c1 2090 	str.w	r2, [r1, #144]	; 0x90
 8002334:	0158      	lsls	r0, r3, #5
 8002336:	d509      	bpl.n	800234c <HAL_RCCEx_PeriphCLKConfig+0x294>
 8002338:	4915      	ldr	r1, [pc, #84]	; (8002390 <HAL_RCCEx_PeriphCLKConfig+0x2d8>)
 800233a:	f8d4 0084 	ldr.w	r0, [r4, #132]	; 0x84
 800233e:	f8d1 2090 	ldr.w	r2, [r1, #144]	; 0x90
 8002342:	f022 5200 	bic.w	r2, r2, #536870912	; 0x20000000
 8002346:	4302      	orrs	r2, r0
 8002348:	f8c1 2090 	str.w	r2, [r1, #144]	; 0x90
 800234c:	0119      	lsls	r1, r3, #4
 800234e:	d509      	bpl.n	8002364 <HAL_RCCEx_PeriphCLKConfig+0x2ac>
 8002350:	490f      	ldr	r1, [pc, #60]	; (8002390 <HAL_RCCEx_PeriphCLKConfig+0x2d8>)
 8002352:	f8d4 0088 	ldr.w	r0, [r4, #136]	; 0x88
 8002356:	f8d1 208c 	ldr.w	r2, [r1, #140]	; 0x8c
 800235a:	f022 7200 	bic.w	r2, r2, #33554432	; 0x2000000
 800235e:	4302      	orrs	r2, r0
 8002360:	f8c1 208c 	str.w	r2, [r1, #140]	; 0x8c
 8002364:	00da      	lsls	r2, r3, #3
 8002366:	f140 813c 	bpl.w	80025e2 <HAL_RCCEx_PeriphCLKConfig+0x52a>
 800236a:	4a09      	ldr	r2, [pc, #36]	; (8002390 <HAL_RCCEx_PeriphCLKConfig+0x2d8>)
 800236c:	2e01      	cmp	r6, #1
 800236e:	f8d4 108c 	ldr.w	r1, [r4, #140]	; 0x8c
 8002372:	f8d2 308c 	ldr.w	r3, [r2, #140]	; 0x8c
 8002376:	f023 6380 	bic.w	r3, r3, #67108864	; 0x4000000
 800237a:	ea43 0301 	orr.w	r3, r3, r1
 800237e:	f8c2 308c 	str.w	r3, [r2, #140]	; 0x8c
 8002382:	f000 80b0 	beq.w	80024e6 <HAL_RCCEx_PeriphCLKConfig+0x42e>
 8002386:	2d01      	cmp	r5, #1
 8002388:	d175      	bne.n	8002476 <HAL_RCCEx_PeriphCLKConfig+0x3be>
 800238a:	4d01      	ldr	r5, [pc, #4]	; (8002390 <HAL_RCCEx_PeriphCLKConfig+0x2d8>)
 800238c:	682b      	ldr	r3, [r5, #0]
 800238e:	e003      	b.n	8002398 <HAL_RCCEx_PeriphCLKConfig+0x2e0>
 8002390:	40023800 	.word	0x40023800
 8002394:	40007000 	.word	0x40007000
 8002398:	f023 5380 	bic.w	r3, r3, #268435456	; 0x10000000
 800239c:	602b      	str	r3, [r5, #0]
 800239e:	f7fe fd01 	bl	8000da4 <HAL_GetTick>
 80023a2:	4606      	mov	r6, r0
 80023a4:	682b      	ldr	r3, [r5, #0]
 80023a6:	009f      	lsls	r7, r3, #2
 80023a8:	f100 8128 	bmi.w	80025fc <HAL_RCCEx_PeriphCLKConfig+0x544>
 80023ac:	6821      	ldr	r1, [r4, #0]
 80023ae:	030e      	lsls	r6, r1, #12
 80023b0:	d501      	bpl.n	80023b6 <HAL_RCCEx_PeriphCLKConfig+0x2fe>
 80023b2:	6be3      	ldr	r3, [r4, #60]	; 0x3c
 80023b4:	b11b      	cbz	r3, 80023be <HAL_RCCEx_PeriphCLKConfig+0x306>
 80023b6:	02cd      	lsls	r5, r1, #11
 80023b8:	d51d      	bpl.n	80023f6 <HAL_RCCEx_PeriphCLKConfig+0x33e>
 80023ba:	6c23      	ldr	r3, [r4, #64]	; 0x40
 80023bc:	b9db      	cbnz	r3, 80023f6 <HAL_RCCEx_PeriphCLKConfig+0x33e>
 80023be:	4a96      	ldr	r2, [pc, #600]	; (8002618 <HAL_RCCEx_PeriphCLKConfig+0x560>)
 80023c0:	f8d2 3088 	ldr.w	r3, [r2, #136]	; 0x88
 80023c4:	f8d2 0088 	ldr.w	r0, [r2, #136]	; 0x88
 80023c8:	f403 3340 	and.w	r3, r3, #196608	; 0x30000
 80023cc:	f000 40e0 	and.w	r0, r0, #1879048192	; 0x70000000
 80023d0:	4303      	orrs	r3, r0
 80023d2:	6960      	ldr	r0, [r4, #20]
 80023d4:	ea43 1380 	orr.w	r3, r3, r0, lsl #6
 80023d8:	69a0      	ldr	r0, [r4, #24]
 80023da:	ea43 6300 	orr.w	r3, r3, r0, lsl #24
 80023de:	f8c2 3088 	str.w	r3, [r2, #136]	; 0x88
 80023e2:	f8d2 308c 	ldr.w	r3, [r2, #140]	; 0x8c
 80023e6:	6aa0      	ldr	r0, [r4, #40]	; 0x28
 80023e8:	f423 53f8 	bic.w	r3, r3, #7936	; 0x1f00
 80023ec:	3801      	subs	r0, #1
 80023ee:	ea43 2300 	orr.w	r3, r3, r0, lsl #8
 80023f2:	f8c2 308c 	str.w	r3, [r2, #140]	; 0x8c
 80023f6:	0288      	lsls	r0, r1, #10
 80023f8:	d515      	bpl.n	8002426 <HAL_RCCEx_PeriphCLKConfig+0x36e>
 80023fa:	6fe3      	ldr	r3, [r4, #124]	; 0x7c
 80023fc:	f1b3 6f00 	cmp.w	r3, #134217728	; 0x8000000
 8002400:	d111      	bne.n	8002426 <HAL_RCCEx_PeriphCLKConfig+0x36e>
 8002402:	4a85      	ldr	r2, [pc, #532]	; (8002618 <HAL_RCCEx_PeriphCLKConfig+0x560>)
 8002404:	f8d2 3088 	ldr.w	r3, [r2, #136]	; 0x88
 8002408:	f8d2 0088 	ldr.w	r0, [r2, #136]	; 0x88
 800240c:	f003 6370 	and.w	r3, r3, #251658240	; 0xf000000
 8002410:	f000 40e0 	and.w	r0, r0, #1879048192	; 0x70000000
 8002414:	4303      	orrs	r3, r0
 8002416:	6960      	ldr	r0, [r4, #20]
 8002418:	ea43 1380 	orr.w	r3, r3, r0, lsl #6
 800241c:	6a20      	ldr	r0, [r4, #32]
 800241e:	ea43 4300 	orr.w	r3, r3, r0, lsl #16
 8002422:	f8c2 3088 	str.w	r3, [r2, #136]	; 0x88
 8002426:	070a      	lsls	r2, r1, #28
 8002428:	d519      	bpl.n	800245e <HAL_RCCEx_PeriphCLKConfig+0x3a6>
 800242a:	4a7b      	ldr	r2, [pc, #492]	; (8002618 <HAL_RCCEx_PeriphCLKConfig+0x560>)
 800242c:	f8d2 1088 	ldr.w	r1, [r2, #136]	; 0x88
 8002430:	f8d2 3088 	ldr.w	r3, [r2, #136]	; 0x88
 8002434:	f001 6170 	and.w	r1, r1, #251658240	; 0xf000000
 8002438:	f403 3340 	and.w	r3, r3, #196608	; 0x30000
 800243c:	430b      	orrs	r3, r1
 800243e:	6961      	ldr	r1, [r4, #20]
 8002440:	ea43 1381 	orr.w	r3, r3, r1, lsl #6
 8002444:	69e1      	ldr	r1, [r4, #28]
 8002446:	ea43 7301 	orr.w	r3, r3, r1, lsl #28
 800244a:	f8c2 3088 	str.w	r3, [r2, #136]	; 0x88
 800244e:	f8d2 308c 	ldr.w	r3, [r2, #140]	; 0x8c
 8002452:	6ae1      	ldr	r1, [r4, #44]	; 0x2c
 8002454:	f423 3340 	bic.w	r3, r3, #196608	; 0x30000
 8002458:	430b      	orrs	r3, r1
 800245a:	f8c2 308c 	str.w	r3, [r2, #140]	; 0x8c
 800245e:	4c6e      	ldr	r4, [pc, #440]	; (8002618 <HAL_RCCEx_PeriphCLKConfig+0x560>)
 8002460:	6823      	ldr	r3, [r4, #0]
 8002462:	f043 5380 	orr.w	r3, r3, #268435456	; 0x10000000
 8002466:	6023      	str	r3, [r4, #0]
 8002468:	f7fe fc9c 	bl	8000da4 <HAL_GetTick>
 800246c:	4605      	mov	r5, r0
 800246e:	6823      	ldr	r3, [r4, #0]
 8002470:	009b      	lsls	r3, r3, #2
 8002472:	f140 80ca 	bpl.w	800260a <HAL_RCCEx_PeriphCLKConfig+0x552>
 8002476:	2000      	movs	r0, #0
 8002478:	e009      	b.n	800248e <HAL_RCCEx_PeriphCLKConfig+0x3d6>
 800247a:	2601      	movs	r6, #1
 800247c:	e658      	b.n	8002130 <HAL_RCCEx_PeriphCLKConfig+0x78>
 800247e:	f7fe fc91 	bl	8000da4 <HAL_GetTick>
 8002482:	eba0 0008 	sub.w	r0, r0, r8
 8002486:	2864      	cmp	r0, #100	; 0x64
 8002488:	f67f ae6a 	bls.w	8002160 <HAL_RCCEx_PeriphCLKConfig+0xa8>
 800248c:	2003      	movs	r0, #3
 800248e:	b003      	add	sp, #12
 8002490:	e8bd 83f0 	ldmia.w	sp!, {r4, r5, r6, r7, r8, r9, pc}
 8002494:	f402 7240 	and.w	r2, r2, #768	; 0x300
 8002498:	429a      	cmp	r2, r3
 800249a:	f43f ae6c 	beq.w	8002176 <HAL_RCCEx_PeriphCLKConfig+0xbe>
 800249e:	6f3b      	ldr	r3, [r7, #112]	; 0x70
 80024a0:	6f3a      	ldr	r2, [r7, #112]	; 0x70
 80024a2:	f423 7340 	bic.w	r3, r3, #768	; 0x300
 80024a6:	f442 3280 	orr.w	r2, r2, #65536	; 0x10000
 80024aa:	673a      	str	r2, [r7, #112]	; 0x70
 80024ac:	6f3a      	ldr	r2, [r7, #112]	; 0x70
 80024ae:	f422 3280 	bic.w	r2, r2, #65536	; 0x10000
 80024b2:	673a      	str	r2, [r7, #112]	; 0x70
 80024b4:	673b      	str	r3, [r7, #112]	; 0x70
 80024b6:	6f3b      	ldr	r3, [r7, #112]	; 0x70
 80024b8:	07da      	lsls	r2, r3, #31
 80024ba:	f57f ae5c 	bpl.w	8002176 <HAL_RCCEx_PeriphCLKConfig+0xbe>
 80024be:	f7fe fc71 	bl	8000da4 <HAL_GetTick>
 80024c2:	f241 3988 	movw	r9, #5000	; 0x1388
 80024c6:	4680      	mov	r8, r0
 80024c8:	6f3b      	ldr	r3, [r7, #112]	; 0x70
 80024ca:	079b      	lsls	r3, r3, #30
 80024cc:	f53f ae53 	bmi.w	8002176 <HAL_RCCEx_PeriphCLKConfig+0xbe>
 80024d0:	f7fe fc68 	bl	8000da4 <HAL_GetTick>
 80024d4:	eba0 0008 	sub.w	r0, r0, r8
 80024d8:	4548      	cmp	r0, r9
 80024da:	d9f5      	bls.n	80024c8 <HAL_RCCEx_PeriphCLKConfig+0x410>
 80024dc:	e7d6      	b.n	800248c <HAL_RCCEx_PeriphCLKConfig+0x3d4>
 80024de:	6891      	ldr	r1, [r2, #8]
 80024e0:	f421 11f8 	bic.w	r1, r1, #2031616	; 0x1f0000
 80024e4:	e657      	b.n	8002196 <HAL_RCCEx_PeriphCLKConfig+0xde>
 80024e6:	4e4c      	ldr	r6, [pc, #304]	; (8002618 <HAL_RCCEx_PeriphCLKConfig+0x560>)
 80024e8:	6833      	ldr	r3, [r6, #0]
 80024ea:	f023 6380 	bic.w	r3, r3, #67108864	; 0x4000000
 80024ee:	6033      	str	r3, [r6, #0]
 80024f0:	f7fe fc58 	bl	8000da4 <HAL_GetTick>
 80024f4:	4607      	mov	r7, r0
 80024f6:	6833      	ldr	r3, [r6, #0]
 80024f8:	011b      	lsls	r3, r3, #4
 80024fa:	d478      	bmi.n	80025ee <HAL_RCCEx_PeriphCLKConfig+0x536>
 80024fc:	6822      	ldr	r2, [r4, #0]
 80024fe:	07d7      	lsls	r7, r2, #31
 8002500:	d512      	bpl.n	8002528 <HAL_RCCEx_PeriphCLKConfig+0x470>
 8002502:	6b63      	ldr	r3, [r4, #52]	; 0x34
 8002504:	b983      	cbnz	r3, 8002528 <HAL_RCCEx_PeriphCLKConfig+0x470>
 8002506:	f8d6 3084 	ldr.w	r3, [r6, #132]	; 0x84
 800250a:	f8d6 1084 	ldr.w	r1, [r6, #132]	; 0x84
 800250e:	f403 3340 	and.w	r3, r3, #196608	; 0x30000
 8002512:	f001 6170 	and.w	r1, r1, #251658240	; 0xf000000
 8002516:	430b      	orrs	r3, r1
 8002518:	6861      	ldr	r1, [r4, #4]
 800251a:	ea43 1381 	orr.w	r3, r3, r1, lsl #6
 800251e:	68a1      	ldr	r1, [r4, #8]
 8002520:	ea43 7301 	orr.w	r3, r3, r1, lsl #28
 8002524:	f8c6 3084 	str.w	r3, [r6, #132]	; 0x84
 8002528:	0316      	lsls	r6, r2, #12
 800252a:	d503      	bpl.n	8002534 <HAL_RCCEx_PeriphCLKConfig+0x47c>
 800252c:	6be3      	ldr	r3, [r4, #60]	; 0x3c
 800252e:	f5b3 1f80 	cmp.w	r3, #1048576	; 0x100000
 8002532:	d005      	beq.n	8002540 <HAL_RCCEx_PeriphCLKConfig+0x488>
 8002534:	02d0      	lsls	r0, r2, #11
 8002536:	d51e      	bpl.n	8002576 <HAL_RCCEx_PeriphCLKConfig+0x4be>
 8002538:	6c23      	ldr	r3, [r4, #64]	; 0x40
 800253a:	f5b3 0f80 	cmp.w	r3, #4194304	; 0x400000
 800253e:	d11a      	bne.n	8002576 <HAL_RCCEx_PeriphCLKConfig+0x4be>
 8002540:	4935      	ldr	r1, [pc, #212]	; (8002618 <HAL_RCCEx_PeriphCLKConfig+0x560>)
 8002542:	f8d1 3084 	ldr.w	r3, [r1, #132]	; 0x84
 8002546:	f8d1 0084 	ldr.w	r0, [r1, #132]	; 0x84
 800254a:	f403 3340 	and.w	r3, r3, #196608	; 0x30000
 800254e:	f000 40e0 	and.w	r0, r0, #1879048192	; 0x70000000
 8002552:	4303      	orrs	r3, r0
 8002554:	6860      	ldr	r0, [r4, #4]
 8002556:	ea43 1380 	orr.w	r3, r3, r0, lsl #6
 800255a:	68e0      	ldr	r0, [r4, #12]
 800255c:	ea43 6300 	orr.w	r3, r3, r0, lsl #24
 8002560:	f8c1 3084 	str.w	r3, [r1, #132]	; 0x84
 8002564:	f8d1 008c 	ldr.w	r0, [r1, #140]	; 0x8c
 8002568:	6a63      	ldr	r3, [r4, #36]	; 0x24
 800256a:	f020 001f 	bic.w	r0, r0, #31
 800256e:	3b01      	subs	r3, #1
 8002570:	4303      	orrs	r3, r0
 8002572:	f8c1 308c 	str.w	r3, [r1, #140]	; 0x8c
 8002576:	01d1      	lsls	r1, r2, #7
 8002578:	d511      	bpl.n	800259e <HAL_RCCEx_PeriphCLKConfig+0x4e6>
 800257a:	4927      	ldr	r1, [pc, #156]	; (8002618 <HAL_RCCEx_PeriphCLKConfig+0x560>)
 800257c:	f8d1 3084 	ldr.w	r3, [r1, #132]	; 0x84
 8002580:	f8d1 0084 	ldr.w	r0, [r1, #132]	; 0x84
 8002584:	f003 6370 	and.w	r3, r3, #251658240	; 0xf000000
 8002588:	f000 40e0 	and.w	r0, r0, #1879048192	; 0x70000000
 800258c:	4303      	orrs	r3, r0
 800258e:	6860      	ldr	r0, [r4, #4]
 8002590:	ea43 1380 	orr.w	r3, r3, r0, lsl #6
 8002594:	6920      	ldr	r0, [r4, #16]
 8002596:	ea43 4300 	orr.w	r3, r3, r0, lsl #16
 800259a:	f8c1 3084 	str.w	r3, [r1, #132]	; 0x84
 800259e:	0192      	lsls	r2, r2, #6
 80025a0:	d50d      	bpl.n	80025be <HAL_RCCEx_PeriphCLKConfig+0x506>
 80025a2:	6923      	ldr	r3, [r4, #16]
 80025a4:	6862      	ldr	r2, [r4, #4]
 80025a6:	041b      	lsls	r3, r3, #16
 80025a8:	ea43 1382 	orr.w	r3, r3, r2, lsl #6
 80025ac:	68e2      	ldr	r2, [r4, #12]
 80025ae:	ea43 6302 	orr.w	r3, r3, r2, lsl #24
 80025b2:	68a2      	ldr	r2, [r4, #8]
 80025b4:	ea43 7302 	orr.w	r3, r3, r2, lsl #28
 80025b8:	4a17      	ldr	r2, [pc, #92]	; (8002618 <HAL_RCCEx_PeriphCLKConfig+0x560>)
 80025ba:	f8c2 3084 	str.w	r3, [r2, #132]	; 0x84
 80025be:	4e16      	ldr	r6, [pc, #88]	; (8002618 <HAL_RCCEx_PeriphCLKConfig+0x560>)
 80025c0:	6833      	ldr	r3, [r6, #0]
 80025c2:	f043 6380 	orr.w	r3, r3, #67108864	; 0x4000000
 80025c6:	6033      	str	r3, [r6, #0]
 80025c8:	f7fe fbec 	bl	8000da4 <HAL_GetTick>
 80025cc:	4607      	mov	r7, r0
 80025ce:	6833      	ldr	r3, [r6, #0]
 80025d0:	011b      	lsls	r3, r3, #4
 80025d2:	f53f aed8 	bmi.w	8002386 <HAL_RCCEx_PeriphCLKConfig+0x2ce>
 80025d6:	f7fe fbe5 	bl	8000da4 <HAL_GetTick>
 80025da:	1bc0      	subs	r0, r0, r7
 80025dc:	2864      	cmp	r0, #100	; 0x64
 80025de:	d9f6      	bls.n	80025ce <HAL_RCCEx_PeriphCLKConfig+0x516>
 80025e0:	e754      	b.n	800248c <HAL_RCCEx_PeriphCLKConfig+0x3d4>
 80025e2:	2e01      	cmp	r6, #1
 80025e4:	f43f af7f 	beq.w	80024e6 <HAL_RCCEx_PeriphCLKConfig+0x42e>
 80025e8:	f1b3 7f00 	cmp.w	r3, #33554432	; 0x2000000
 80025ec:	e6c9      	b.n	8002382 <HAL_RCCEx_PeriphCLKConfig+0x2ca>
 80025ee:	f7fe fbd9 	bl	8000da4 <HAL_GetTick>
 80025f2:	1bc0      	subs	r0, r0, r7
 80025f4:	2864      	cmp	r0, #100	; 0x64
 80025f6:	f67f af7e 	bls.w	80024f6 <HAL_RCCEx_PeriphCLKConfig+0x43e>
 80025fa:	e747      	b.n	800248c <HAL_RCCEx_PeriphCLKConfig+0x3d4>
 80025fc:	f7fe fbd2 	bl	8000da4 <HAL_GetTick>
 8002600:	1b80      	subs	r0, r0, r6
 8002602:	2864      	cmp	r0, #100	; 0x64
 8002604:	f67f aece 	bls.w	80023a4 <HAL_RCCEx_PeriphCLKConfig+0x2ec>
 8002608:	e740      	b.n	800248c <HAL_RCCEx_PeriphCLKConfig+0x3d4>
 800260a:	f7fe fbcb 	bl	8000da4 <HAL_GetTick>
 800260e:	1b40      	subs	r0, r0, r5
 8002610:	2864      	cmp	r0, #100	; 0x64
 8002612:	f67f af2c 	bls.w	800246e <HAL_RCCEx_PeriphCLKConfig+0x3b6>
 8002616:	e739      	b.n	800248c <HAL_RCCEx_PeriphCLKConfig+0x3d4>
 8002618:	40023800 	.word	0x40023800

0800261c <UART_EndRxTransfer>:
 800261c:	6803      	ldr	r3, [r0, #0]
 800261e:	681a      	ldr	r2, [r3, #0]
 8002620:	f422 7290 	bic.w	r2, r2, #288	; 0x120
 8002624:	601a      	str	r2, [r3, #0]
 8002626:	689a      	ldr	r2, [r3, #8]
 8002628:	f022 0201 	bic.w	r2, r2, #1
 800262c:	609a      	str	r2, [r3, #8]
 800262e:	2320      	movs	r3, #32
 8002630:	6783      	str	r3, [r0, #120]	; 0x78
 8002632:	2300      	movs	r3, #0
 8002634:	6603      	str	r3, [r0, #96]	; 0x60
 8002636:	4770      	bx	lr

08002638 <HAL_UART_Receive_IT>:
 8002638:	6f83      	ldr	r3, [r0, #120]	; 0x78
 800263a:	2b20      	cmp	r3, #32
 800263c:	b510      	push	{r4, lr}
 800263e:	d14b      	bne.n	80026d8 <HAL_UART_Receive_IT+0xa0>
 8002640:	2900      	cmp	r1, #0
 8002642:	d047      	beq.n	80026d4 <HAL_UART_Receive_IT+0x9c>
 8002644:	2a00      	cmp	r2, #0
 8002646:	d045      	beq.n	80026d4 <HAL_UART_Receive_IT+0x9c>
 8002648:	f890 3070 	ldrb.w	r3, [r0, #112]	; 0x70
 800264c:	2b01      	cmp	r3, #1
 800264e:	d043      	beq.n	80026d8 <HAL_UART_Receive_IT+0xa0>
 8002650:	6541      	str	r1, [r0, #84]	; 0x54
 8002652:	6881      	ldr	r1, [r0, #8]
 8002654:	f8a0 2058 	strh.w	r2, [r0, #88]	; 0x58
 8002658:	f5b1 5f80 	cmp.w	r1, #4096	; 0x1000
 800265c:	f8a0 205a 	strh.w	r2, [r0, #90]	; 0x5a
 8002660:	d124      	bne.n	80026ac <HAL_UART_Receive_IT+0x74>
 8002662:	6903      	ldr	r3, [r0, #16]
 8002664:	2b00      	cmp	r3, #0
 8002666:	f240 13ff 	movw	r3, #511	; 0x1ff
 800266a:	bf18      	it	ne
 800266c:	23ff      	movne	r3, #255	; 0xff
 800266e:	f8a0 305c 	strh.w	r3, [r0, #92]	; 0x5c
 8002672:	2300      	movs	r3, #0
 8002674:	6802      	ldr	r2, [r0, #0]
 8002676:	f5b1 5f80 	cmp.w	r1, #4096	; 0x1000
 800267a:	67c3      	str	r3, [r0, #124]	; 0x7c
 800267c:	f04f 0322 	mov.w	r3, #34	; 0x22
 8002680:	6783      	str	r3, [r0, #120]	; 0x78
 8002682:	6893      	ldr	r3, [r2, #8]
 8002684:	f043 0301 	orr.w	r3, r3, #1
 8002688:	6093      	str	r3, [r2, #8]
 800268a:	d121      	bne.n	80026d0 <HAL_UART_Receive_IT+0x98>
 800268c:	6904      	ldr	r4, [r0, #16]
 800268e:	4b13      	ldr	r3, [pc, #76]	; (80026dc <HAL_UART_Receive_IT+0xa4>)
 8002690:	4913      	ldr	r1, [pc, #76]	; (80026e0 <HAL_UART_Receive_IT+0xa8>)
 8002692:	2c00      	cmp	r4, #0
 8002694:	bf08      	it	eq
 8002696:	460b      	moveq	r3, r1
 8002698:	6603      	str	r3, [r0, #96]	; 0x60
 800269a:	2300      	movs	r3, #0
 800269c:	f880 3070 	strb.w	r3, [r0, #112]	; 0x70
 80026a0:	4618      	mov	r0, r3
 80026a2:	6811      	ldr	r1, [r2, #0]
 80026a4:	f441 7190 	orr.w	r1, r1, #288	; 0x120
 80026a8:	6011      	str	r1, [r2, #0]
 80026aa:	bd10      	pop	{r4, pc}
 80026ac:	b929      	cbnz	r1, 80026ba <HAL_UART_Receive_IT+0x82>
 80026ae:	6903      	ldr	r3, [r0, #16]
 80026b0:	2b00      	cmp	r3, #0
 80026b2:	bf14      	ite	ne
 80026b4:	237f      	movne	r3, #127	; 0x7f
 80026b6:	23ff      	moveq	r3, #255	; 0xff
 80026b8:	e7d9      	b.n	800266e <HAL_UART_Receive_IT+0x36>
 80026ba:	f1b1 5f80 	cmp.w	r1, #268435456	; 0x10000000
 80026be:	d105      	bne.n	80026cc <HAL_UART_Receive_IT+0x94>
 80026c0:	6903      	ldr	r3, [r0, #16]
 80026c2:	2b00      	cmp	r3, #0
 80026c4:	bf0c      	ite	eq
 80026c6:	237f      	moveq	r3, #127	; 0x7f
 80026c8:	233f      	movne	r3, #63	; 0x3f
 80026ca:	e7d0      	b.n	800266e <HAL_UART_Receive_IT+0x36>
 80026cc:	2300      	movs	r3, #0
 80026ce:	e7ce      	b.n	800266e <HAL_UART_Receive_IT+0x36>
 80026d0:	4b02      	ldr	r3, [pc, #8]	; (80026dc <HAL_UART_Receive_IT+0xa4>)
 80026d2:	e7e1      	b.n	8002698 <HAL_UART_Receive_IT+0x60>
 80026d4:	2001      	movs	r0, #1
 80026d6:	e7e8      	b.n	80026aa <HAL_UART_Receive_IT+0x72>
 80026d8:	2002      	movs	r0, #2
 80026da:	e7e6      	b.n	80026aa <HAL_UART_Receive_IT+0x72>
 80026dc:	080027f1 	.word	0x080027f1
 80026e0:	08002849 	.word	0x08002849

080026e4 <HAL_UART_Receive_DMA>:
 80026e4:	b5f8      	push	{r3, r4, r5, r6, r7, lr}
 80026e6:	6f87      	ldr	r7, [r0, #120]	; 0x78
 80026e8:	4604      	mov	r4, r0
 80026ea:	4613      	mov	r3, r2
 80026ec:	2f20      	cmp	r7, #32
 80026ee:	d138      	bne.n	8002762 <HAL_UART_Receive_DMA+0x7e>
 80026f0:	b321      	cbz	r1, 800273c <HAL_UART_Receive_DMA+0x58>
 80026f2:	b31a      	cbz	r2, 800273c <HAL_UART_Receive_DMA+0x58>
 80026f4:	f890 2070 	ldrb.w	r2, [r0, #112]	; 0x70
 80026f8:	2a01      	cmp	r2, #1
 80026fa:	d032      	beq.n	8002762 <HAL_UART_Receive_DMA+0x7e>
 80026fc:	2501      	movs	r5, #1
 80026fe:	2600      	movs	r6, #0
 8002700:	2222      	movs	r2, #34	; 0x22
 8002702:	6541      	str	r1, [r0, #84]	; 0x54
 8002704:	f880 5070 	strb.w	r5, [r0, #112]	; 0x70
 8002708:	67c6      	str	r6, [r0, #124]	; 0x7c
 800270a:	f8a0 3058 	strh.w	r3, [r0, #88]	; 0x58
 800270e:	6782      	str	r2, [r0, #120]	; 0x78
 8002710:	6ec0      	ldr	r0, [r0, #108]	; 0x6c
 8002712:	f8d4 c000 	ldr.w	ip, [r4]
 8002716:	b198      	cbz	r0, 8002740 <HAL_UART_Receive_DMA+0x5c>
 8002718:	4a13      	ldr	r2, [pc, #76]	; (8002768 <HAL_UART_Receive_DMA+0x84>)
 800271a:	63c2      	str	r2, [r0, #60]	; 0x3c
 800271c:	4a13      	ldr	r2, [pc, #76]	; (800276c <HAL_UART_Receive_DMA+0x88>)
 800271e:	6402      	str	r2, [r0, #64]	; 0x40
 8002720:	4a13      	ldr	r2, [pc, #76]	; (8002770 <HAL_UART_Receive_DMA+0x8c>)
 8002722:	e9c0 2613 	strd	r2, r6, [r0, #76]	; 0x4c
 8002726:	460a      	mov	r2, r1
 8002728:	f10c 0124 	add.w	r1, ip, #36	; 0x24
 800272c:	f7fe fc3a 	bl	8000fa4 <HAL_DMA_Start_IT>
 8002730:	b130      	cbz	r0, 8002740 <HAL_UART_Receive_DMA+0x5c>
 8002732:	2310      	movs	r3, #16
 8002734:	f884 6070 	strb.w	r6, [r4, #112]	; 0x70
 8002738:	67e3      	str	r3, [r4, #124]	; 0x7c
 800273a:	6767      	str	r7, [r4, #116]	; 0x74
 800273c:	2001      	movs	r0, #1
 800273e:	e00f      	b.n	8002760 <HAL_UART_Receive_DMA+0x7c>
 8002740:	6823      	ldr	r3, [r4, #0]
 8002742:	2000      	movs	r0, #0
 8002744:	f884 0070 	strb.w	r0, [r4, #112]	; 0x70
 8002748:	681a      	ldr	r2, [r3, #0]
 800274a:	f442 7280 	orr.w	r2, r2, #256	; 0x100
 800274e:	601a      	str	r2, [r3, #0]
 8002750:	689a      	ldr	r2, [r3, #8]
 8002752:	f042 0201 	orr.w	r2, r2, #1
 8002756:	609a      	str	r2, [r3, #8]
 8002758:	689a      	ldr	r2, [r3, #8]
 800275a:	f042 0240 	orr.w	r2, r2, #64	; 0x40
 800275e:	609a      	str	r2, [r3, #8]
 8002760:	bdf8      	pop	{r3, r4, r5, r6, r7, pc}
 8002762:	2002      	movs	r0, #2
 8002764:	e7fc      	b.n	8002760 <HAL_UART_Receive_DMA+0x7c>
 8002766:	bf00      	nop
 8002768:	0800289d 	.word	0x0800289d
 800276c:	080028d7 	.word	0x080028d7
 8002770:	080028e3 	.word	0x080028e3

08002774 <HAL_UART_DMAStop>:
 8002774:	b538      	push	{r3, r4, r5, lr}
 8002776:	6803      	ldr	r3, [r0, #0]
 8002778:	4604      	mov	r4, r0
 800277a:	6f42      	ldr	r2, [r0, #116]	; 0x74
 800277c:	6f85      	ldr	r5, [r0, #120]	; 0x78
 800277e:	6899      	ldr	r1, [r3, #8]
 8002780:	0609      	lsls	r1, r1, #24
 8002782:	d51a      	bpl.n	80027ba <HAL_UART_DMAStop+0x46>
 8002784:	2a21      	cmp	r2, #33	; 0x21
 8002786:	d118      	bne.n	80027ba <HAL_UART_DMAStop+0x46>
 8002788:	689a      	ldr	r2, [r3, #8]
 800278a:	6e80      	ldr	r0, [r0, #104]	; 0x68
 800278c:	f022 0280 	bic.w	r2, r2, #128	; 0x80
 8002790:	609a      	str	r2, [r3, #8]
 8002792:	b158      	cbz	r0, 80027ac <HAL_UART_DMAStop+0x38>
 8002794:	f7fe fc43 	bl	800101e <HAL_DMA_Abort>
 8002798:	b140      	cbz	r0, 80027ac <HAL_UART_DMAStop+0x38>
 800279a:	6ea0      	ldr	r0, [r4, #104]	; 0x68
 800279c:	f7fe fd54 	bl	8001248 <HAL_DMA_GetError>
 80027a0:	2820      	cmp	r0, #32
 80027a2:	d103      	bne.n	80027ac <HAL_UART_DMAStop+0x38>
 80027a4:	2310      	movs	r3, #16
 80027a6:	2003      	movs	r0, #3
 80027a8:	67e3      	str	r3, [r4, #124]	; 0x7c
 80027aa:	bd38      	pop	{r3, r4, r5, pc}
 80027ac:	6822      	ldr	r2, [r4, #0]
 80027ae:	6813      	ldr	r3, [r2, #0]
 80027b0:	f023 03c0 	bic.w	r3, r3, #192	; 0xc0
 80027b4:	6013      	str	r3, [r2, #0]
 80027b6:	2320      	movs	r3, #32
 80027b8:	6763      	str	r3, [r4, #116]	; 0x74
 80027ba:	6823      	ldr	r3, [r4, #0]
 80027bc:	6898      	ldr	r0, [r3, #8]
 80027be:	f010 0040 	ands.w	r0, r0, #64	; 0x40
 80027c2:	d0f2      	beq.n	80027aa <HAL_UART_DMAStop+0x36>
 80027c4:	2d22      	cmp	r5, #34	; 0x22
 80027c6:	d110      	bne.n	80027ea <HAL_UART_DMAStop+0x76>
 80027c8:	689a      	ldr	r2, [r3, #8]
 80027ca:	6ee0      	ldr	r0, [r4, #108]	; 0x6c
 80027cc:	f022 0240 	bic.w	r2, r2, #64	; 0x40
 80027d0:	609a      	str	r2, [r3, #8]
 80027d2:	b138      	cbz	r0, 80027e4 <HAL_UART_DMAStop+0x70>
 80027d4:	f7fe fc23 	bl	800101e <HAL_DMA_Abort>
 80027d8:	b120      	cbz	r0, 80027e4 <HAL_UART_DMAStop+0x70>
 80027da:	6ee0      	ldr	r0, [r4, #108]	; 0x6c
 80027dc:	f7fe fd34 	bl	8001248 <HAL_DMA_GetError>
 80027e0:	2820      	cmp	r0, #32
 80027e2:	d0df      	beq.n	80027a4 <HAL_UART_DMAStop+0x30>
 80027e4:	4620      	mov	r0, r4
 80027e6:	f7ff ff19 	bl	800261c <UART_EndRxTransfer>
 80027ea:	2000      	movs	r0, #0
 80027ec:	e7dd      	b.n	80027aa <HAL_UART_DMAStop+0x36>

080027ee <HAL_UART_TxCpltCallback>:
 80027ee:	4770      	bx	lr

080027f0 <UART_RxISR_8BIT>:
 80027f0:	6f81      	ldr	r1, [r0, #120]	; 0x78
 80027f2:	6802      	ldr	r2, [r0, #0]
 80027f4:	2922      	cmp	r1, #34	; 0x22
 80027f6:	b510      	push	{r4, lr}
 80027f8:	f8b0 405c 	ldrh.w	r4, [r0, #92]	; 0x5c
 80027fc:	d11f      	bne.n	800283e <UART_RxISR_8BIT+0x4e>
 80027fe:	6a52      	ldr	r2, [r2, #36]	; 0x24
 8002800:	6d41      	ldr	r1, [r0, #84]	; 0x54
 8002802:	4022      	ands	r2, r4
 8002804:	700a      	strb	r2, [r1, #0]
 8002806:	6d42      	ldr	r2, [r0, #84]	; 0x54
 8002808:	3201      	adds	r2, #1
 800280a:	6542      	str	r2, [r0, #84]	; 0x54
 800280c:	f8b0 205a 	ldrh.w	r2, [r0, #90]	; 0x5a
 8002810:	3a01      	subs	r2, #1
 8002812:	b292      	uxth	r2, r2
 8002814:	f8a0 205a 	strh.w	r2, [r0, #90]	; 0x5a
 8002818:	f8b0 205a 	ldrh.w	r2, [r0, #90]	; 0x5a
 800281c:	b292      	uxth	r2, r2
 800281e:	b96a      	cbnz	r2, 800283c <UART_RxISR_8BIT+0x4c>
 8002820:	6801      	ldr	r1, [r0, #0]
 8002822:	680c      	ldr	r4, [r1, #0]
 8002824:	f424 7490 	bic.w	r4, r4, #288	; 0x120
 8002828:	600c      	str	r4, [r1, #0]
 800282a:	688c      	ldr	r4, [r1, #8]
 800282c:	f024 0401 	bic.w	r4, r4, #1
 8002830:	608c      	str	r4, [r1, #8]
 8002832:	2120      	movs	r1, #32
 8002834:	6602      	str	r2, [r0, #96]	; 0x60
 8002836:	6781      	str	r1, [r0, #120]	; 0x78
 8002838:	f001 f94e 	bl	8003ad8 <HAL_UART_RxCpltCallback>
 800283c:	bd10      	pop	{r4, pc}
 800283e:	6993      	ldr	r3, [r2, #24]
 8002840:	f043 0308 	orr.w	r3, r3, #8
 8002844:	6193      	str	r3, [r2, #24]
 8002846:	e7f9      	b.n	800283c <UART_RxISR_8BIT+0x4c>

08002848 <UART_RxISR_16BIT>:
 8002848:	6f81      	ldr	r1, [r0, #120]	; 0x78
 800284a:	6802      	ldr	r2, [r0, #0]
 800284c:	2922      	cmp	r1, #34	; 0x22
 800284e:	b510      	push	{r4, lr}
 8002850:	f8b0 405c 	ldrh.w	r4, [r0, #92]	; 0x5c
 8002854:	d11d      	bne.n	8002892 <UART_RxISR_16BIT+0x4a>
 8002856:	6a51      	ldr	r1, [r2, #36]	; 0x24
 8002858:	400c      	ands	r4, r1
 800285a:	6d41      	ldr	r1, [r0, #84]	; 0x54
 800285c:	f821 4b02 	strh.w	r4, [r1], #2
 8002860:	6541      	str	r1, [r0, #84]	; 0x54
 8002862:	f8b0 105a 	ldrh.w	r1, [r0, #90]	; 0x5a
 8002866:	3901      	subs	r1, #1
 8002868:	b289      	uxth	r1, r1
 800286a:	f8a0 105a 	strh.w	r1, [r0, #90]	; 0x5a
 800286e:	f8b0 105a 	ldrh.w	r1, [r0, #90]	; 0x5a
 8002872:	b289      	uxth	r1, r1
 8002874:	b961      	cbnz	r1, 8002890 <UART_RxISR_16BIT+0x48>
 8002876:	6814      	ldr	r4, [r2, #0]
 8002878:	f424 7490 	bic.w	r4, r4, #288	; 0x120
 800287c:	6014      	str	r4, [r2, #0]
 800287e:	6894      	ldr	r4, [r2, #8]
 8002880:	f024 0401 	bic.w	r4, r4, #1
 8002884:	6094      	str	r4, [r2, #8]
 8002886:	2220      	movs	r2, #32
 8002888:	6601      	str	r1, [r0, #96]	; 0x60
 800288a:	6782      	str	r2, [r0, #120]	; 0x78
 800288c:	f001 f924 	bl	8003ad8 <HAL_UART_RxCpltCallback>
 8002890:	bd10      	pop	{r4, pc}
 8002892:	6993      	ldr	r3, [r2, #24]
 8002894:	f043 0308 	orr.w	r3, r3, #8
 8002898:	6193      	str	r3, [r2, #24]
 800289a:	e7f9      	b.n	8002890 <UART_RxISR_16BIT+0x48>

0800289c <UART_DMAReceiveCplt>:
 800289c:	b508      	push	{r3, lr}
 800289e:	69c3      	ldr	r3, [r0, #28]
 80028a0:	6b82      	ldr	r2, [r0, #56]	; 0x38
 80028a2:	f5b3 7f80 	cmp.w	r3, #256	; 0x100
 80028a6:	d011      	beq.n	80028cc <UART_DMAReceiveCplt+0x30>
 80028a8:	2300      	movs	r3, #0
 80028aa:	f8a2 305a 	strh.w	r3, [r2, #90]	; 0x5a
 80028ae:	6813      	ldr	r3, [r2, #0]
 80028b0:	6819      	ldr	r1, [r3, #0]
 80028b2:	f421 7180 	bic.w	r1, r1, #256	; 0x100
 80028b6:	6019      	str	r1, [r3, #0]
 80028b8:	6899      	ldr	r1, [r3, #8]
 80028ba:	f021 0101 	bic.w	r1, r1, #1
 80028be:	6099      	str	r1, [r3, #8]
 80028c0:	6899      	ldr	r1, [r3, #8]
 80028c2:	f021 0140 	bic.w	r1, r1, #64	; 0x40
 80028c6:	6099      	str	r1, [r3, #8]
 80028c8:	2320      	movs	r3, #32
 80028ca:	6793      	str	r3, [r2, #120]	; 0x78
 80028cc:	4610      	mov	r0, r2
 80028ce:	f001 f903 	bl	8003ad8 <HAL_UART_RxCpltCallback>
 80028d2:	bd08      	pop	{r3, pc}

080028d4 <HAL_UART_RxHalfCpltCallback>:
 80028d4:	4770      	bx	lr

080028d6 <UART_DMARxHalfCplt>:
 80028d6:	6b80      	ldr	r0, [r0, #56]	; 0x38
 80028d8:	b508      	push	{r3, lr}
 80028da:	f7ff fffb 	bl	80028d4 <HAL_UART_RxHalfCpltCallback>
 80028de:	bd08      	pop	{r3, pc}

080028e0 <HAL_UART_ErrorCallback>:
 80028e0:	4770      	bx	lr

080028e2 <UART_DMAError>:
 80028e2:	6b80      	ldr	r0, [r0, #56]	; 0x38
 80028e4:	6803      	ldr	r3, [r0, #0]
 80028e6:	6f42      	ldr	r2, [r0, #116]	; 0x74
 80028e8:	6f81      	ldr	r1, [r0, #120]	; 0x78
 80028ea:	b510      	push	{r4, lr}
 80028ec:	689c      	ldr	r4, [r3, #8]
 80028ee:	0624      	lsls	r4, r4, #24
 80028f0:	d50a      	bpl.n	8002908 <UART_DMAError+0x26>
 80028f2:	2a21      	cmp	r2, #33	; 0x21
 80028f4:	d108      	bne.n	8002908 <UART_DMAError+0x26>
 80028f6:	2200      	movs	r2, #0
 80028f8:	f8a0 2052 	strh.w	r2, [r0, #82]	; 0x52
 80028fc:	681a      	ldr	r2, [r3, #0]
 80028fe:	f022 02c0 	bic.w	r2, r2, #192	; 0xc0
 8002902:	601a      	str	r2, [r3, #0]
 8002904:	2220      	movs	r2, #32
 8002906:	6742      	str	r2, [r0, #116]	; 0x74
 8002908:	689b      	ldr	r3, [r3, #8]
 800290a:	065b      	lsls	r3, r3, #25
 800290c:	d506      	bpl.n	800291c <UART_DMAError+0x3a>
 800290e:	2922      	cmp	r1, #34	; 0x22
 8002910:	d104      	bne.n	800291c <UART_DMAError+0x3a>
 8002912:	2300      	movs	r3, #0
 8002914:	f8a0 305a 	strh.w	r3, [r0, #90]	; 0x5a
 8002918:	f7ff fe80 	bl	800261c <UART_EndRxTransfer>
 800291c:	6fc3      	ldr	r3, [r0, #124]	; 0x7c
 800291e:	f043 0310 	orr.w	r3, r3, #16
 8002922:	67c3      	str	r3, [r0, #124]	; 0x7c
 8002924:	f7ff ffdc 	bl	80028e0 <HAL_UART_ErrorCallback>
 8002928:	bd10      	pop	{r4, pc}

0800292a <UART_DMAAbortOnError>:
 800292a:	b508      	push	{r3, lr}
 800292c:	6b80      	ldr	r0, [r0, #56]	; 0x38
 800292e:	2300      	movs	r3, #0
 8002930:	f8a0 305a 	strh.w	r3, [r0, #90]	; 0x5a
 8002934:	f8a0 3052 	strh.w	r3, [r0, #82]	; 0x52
 8002938:	f7ff ffd2 	bl	80028e0 <HAL_UART_ErrorCallback>
 800293c:	bd08      	pop	{r3, pc}

0800293e <HAL_UARTEx_WakeupCallback>:
 800293e:	4770      	bx	lr

08002940 <HAL_UART_IRQHandler>:
 8002940:	6803      	ldr	r3, [r0, #0]
 8002942:	b570      	push	{r4, r5, r6, lr}
 8002944:	69da      	ldr	r2, [r3, #28]
 8002946:	f640 060f 	movw	r6, #2063	; 0x80f
 800294a:	6819      	ldr	r1, [r3, #0]
 800294c:	4604      	mov	r4, r0
 800294e:	4232      	tst	r2, r6
 8002950:	689d      	ldr	r5, [r3, #8]
 8002952:	d109      	bne.n	8002968 <HAL_UART_IRQHandler+0x28>
 8002954:	0696      	lsls	r6, r2, #26
 8002956:	d570      	bpl.n	8002a3a <HAL_UART_IRQHandler+0xfa>
 8002958:	068e      	lsls	r6, r1, #26
 800295a:	d56e      	bpl.n	8002a3a <HAL_UART_IRQHandler+0xfa>
 800295c:	6e03      	ldr	r3, [r0, #96]	; 0x60
 800295e:	2b00      	cmp	r3, #0
 8002960:	d066      	beq.n	8002a30 <HAL_UART_IRQHandler+0xf0>
 8002962:	e8bd 4070 	ldmia.w	sp!, {r4, r5, r6, lr}
 8002966:	4718      	bx	r3
 8002968:	f005 0001 	and.w	r0, r5, #1
 800296c:	f401 7690 	and.w	r6, r1, #288	; 0x120
 8002970:	4306      	orrs	r6, r0
 8002972:	d062      	beq.n	8002a3a <HAL_UART_IRQHandler+0xfa>
 8002974:	07d5      	lsls	r5, r2, #31
 8002976:	d507      	bpl.n	8002988 <HAL_UART_IRQHandler+0x48>
 8002978:	05ce      	lsls	r6, r1, #23
 800297a:	d505      	bpl.n	8002988 <HAL_UART_IRQHandler+0x48>
 800297c:	2501      	movs	r5, #1
 800297e:	621d      	str	r5, [r3, #32]
 8002980:	6fe5      	ldr	r5, [r4, #124]	; 0x7c
 8002982:	f045 0501 	orr.w	r5, r5, #1
 8002986:	67e5      	str	r5, [r4, #124]	; 0x7c
 8002988:	0795      	lsls	r5, r2, #30
 800298a:	d506      	bpl.n	800299a <HAL_UART_IRQHandler+0x5a>
 800298c:	b128      	cbz	r0, 800299a <HAL_UART_IRQHandler+0x5a>
 800298e:	2502      	movs	r5, #2
 8002990:	621d      	str	r5, [r3, #32]
 8002992:	6fe5      	ldr	r5, [r4, #124]	; 0x7c
 8002994:	f045 0504 	orr.w	r5, r5, #4
 8002998:	67e5      	str	r5, [r4, #124]	; 0x7c
 800299a:	0756      	lsls	r6, r2, #29
 800299c:	d506      	bpl.n	80029ac <HAL_UART_IRQHandler+0x6c>
 800299e:	b128      	cbz	r0, 80029ac <HAL_UART_IRQHandler+0x6c>
 80029a0:	2504      	movs	r5, #4
 80029a2:	621d      	str	r5, [r3, #32]
 80029a4:	6fe5      	ldr	r5, [r4, #124]	; 0x7c
 80029a6:	f045 0502 	orr.w	r5, r5, #2
 80029aa:	67e5      	str	r5, [r4, #124]	; 0x7c
 80029ac:	0715      	lsls	r5, r2, #28
 80029ae:	d509      	bpl.n	80029c4 <HAL_UART_IRQHandler+0x84>
 80029b0:	f001 0520 	and.w	r5, r1, #32
 80029b4:	4305      	orrs	r5, r0
 80029b6:	d005      	beq.n	80029c4 <HAL_UART_IRQHandler+0x84>
 80029b8:	2008      	movs	r0, #8
 80029ba:	6218      	str	r0, [r3, #32]
 80029bc:	6fe0      	ldr	r0, [r4, #124]	; 0x7c
 80029be:	f040 0008 	orr.w	r0, r0, #8
 80029c2:	67e0      	str	r0, [r4, #124]	; 0x7c
 80029c4:	0516      	lsls	r6, r2, #20
 80029c6:	d508      	bpl.n	80029da <HAL_UART_IRQHandler+0x9a>
 80029c8:	014d      	lsls	r5, r1, #5
 80029ca:	d506      	bpl.n	80029da <HAL_UART_IRQHandler+0x9a>
 80029cc:	f44f 6000 	mov.w	r0, #2048	; 0x800
 80029d0:	6218      	str	r0, [r3, #32]
 80029d2:	6fe3      	ldr	r3, [r4, #124]	; 0x7c
 80029d4:	f043 0320 	orr.w	r3, r3, #32
 80029d8:	67e3      	str	r3, [r4, #124]	; 0x7c
 80029da:	6fe3      	ldr	r3, [r4, #124]	; 0x7c
 80029dc:	b343      	cbz	r3, 8002a30 <HAL_UART_IRQHandler+0xf0>
 80029de:	0690      	lsls	r0, r2, #26
 80029e0:	d505      	bpl.n	80029ee <HAL_UART_IRQHandler+0xae>
 80029e2:	068a      	lsls	r2, r1, #26
 80029e4:	d503      	bpl.n	80029ee <HAL_UART_IRQHandler+0xae>
 80029e6:	6e23      	ldr	r3, [r4, #96]	; 0x60
 80029e8:	b10b      	cbz	r3, 80029ee <HAL_UART_IRQHandler+0xae>
 80029ea:	4620      	mov	r0, r4
 80029ec:	4798      	blx	r3
 80029ee:	6821      	ldr	r1, [r4, #0]
 80029f0:	4620      	mov	r0, r4
 80029f2:	6fe2      	ldr	r2, [r4, #124]	; 0x7c
 80029f4:	688b      	ldr	r3, [r1, #8]
 80029f6:	f002 0228 	and.w	r2, r2, #40	; 0x28
 80029fa:	f003 0340 	and.w	r3, r3, #64	; 0x40
 80029fe:	ea53 0502 	orrs.w	r5, r3, r2
 8002a02:	d016      	beq.n	8002a32 <HAL_UART_IRQHandler+0xf2>
 8002a04:	f7ff fe0a 	bl	800261c <UART_EndRxTransfer>
 8002a08:	688b      	ldr	r3, [r1, #8]
 8002a0a:	065b      	lsls	r3, r3, #25
 8002a0c:	d50d      	bpl.n	8002a2a <HAL_UART_IRQHandler+0xea>
 8002a0e:	688b      	ldr	r3, [r1, #8]
 8002a10:	6ee0      	ldr	r0, [r4, #108]	; 0x6c
 8002a12:	f023 0340 	bic.w	r3, r3, #64	; 0x40
 8002a16:	608b      	str	r3, [r1, #8]
 8002a18:	b138      	cbz	r0, 8002a2a <HAL_UART_IRQHandler+0xea>
 8002a1a:	4b1a      	ldr	r3, [pc, #104]	; (8002a84 <HAL_UART_IRQHandler+0x144>)
 8002a1c:	6503      	str	r3, [r0, #80]	; 0x50
 8002a1e:	f7fe fb42 	bl	80010a6 <HAL_DMA_Abort_IT>
 8002a22:	b128      	cbz	r0, 8002a30 <HAL_UART_IRQHandler+0xf0>
 8002a24:	6ee0      	ldr	r0, [r4, #108]	; 0x6c
 8002a26:	6d03      	ldr	r3, [r0, #80]	; 0x50
 8002a28:	e79b      	b.n	8002962 <HAL_UART_IRQHandler+0x22>
 8002a2a:	4620      	mov	r0, r4
 8002a2c:	f7ff ff58 	bl	80028e0 <HAL_UART_ErrorCallback>
 8002a30:	bd70      	pop	{r4, r5, r6, pc}
 8002a32:	f7ff ff55 	bl	80028e0 <HAL_UART_ErrorCallback>
 8002a36:	67e5      	str	r5, [r4, #124]	; 0x7c
 8002a38:	e7fa      	b.n	8002a30 <HAL_UART_IRQHandler+0xf0>
 8002a3a:	02d6      	lsls	r6, r2, #11
 8002a3c:	d508      	bpl.n	8002a50 <HAL_UART_IRQHandler+0x110>
 8002a3e:	0268      	lsls	r0, r5, #9
 8002a40:	d506      	bpl.n	8002a50 <HAL_UART_IRQHandler+0x110>
 8002a42:	f44f 1280 	mov.w	r2, #1048576	; 0x100000
 8002a46:	4620      	mov	r0, r4
 8002a48:	621a      	str	r2, [r3, #32]
 8002a4a:	f7ff ff78 	bl	800293e <HAL_UARTEx_WakeupCallback>
 8002a4e:	e7ef      	b.n	8002a30 <HAL_UART_IRQHandler+0xf0>
 8002a50:	0616      	lsls	r6, r2, #24
 8002a52:	d506      	bpl.n	8002a62 <HAL_UART_IRQHandler+0x122>
 8002a54:	060d      	lsls	r5, r1, #24
 8002a56:	d504      	bpl.n	8002a62 <HAL_UART_IRQHandler+0x122>
 8002a58:	6e63      	ldr	r3, [r4, #100]	; 0x64
 8002a5a:	2b00      	cmp	r3, #0
 8002a5c:	d0e8      	beq.n	8002a30 <HAL_UART_IRQHandler+0xf0>
 8002a5e:	4620      	mov	r0, r4
 8002a60:	e77f      	b.n	8002962 <HAL_UART_IRQHandler+0x22>
 8002a62:	0650      	lsls	r0, r2, #25
 8002a64:	d5e4      	bpl.n	8002a30 <HAL_UART_IRQHandler+0xf0>
 8002a66:	064a      	lsls	r2, r1, #25
 8002a68:	d5e2      	bpl.n	8002a30 <HAL_UART_IRQHandler+0xf0>
 8002a6a:	681a      	ldr	r2, [r3, #0]
 8002a6c:	4620      	mov	r0, r4
 8002a6e:	f022 0240 	bic.w	r2, r2, #64	; 0x40
 8002a72:	601a      	str	r2, [r3, #0]
 8002a74:	2320      	movs	r3, #32
 8002a76:	6763      	str	r3, [r4, #116]	; 0x74
 8002a78:	2300      	movs	r3, #0
 8002a7a:	6663      	str	r3, [r4, #100]	; 0x64
 8002a7c:	f7ff feb7 	bl	80027ee <HAL_UART_TxCpltCallback>
 8002a80:	e7d6      	b.n	8002a30 <HAL_UART_IRQHandler+0xf0>
 8002a82:	bf00      	nop
 8002a84:	0800292b 	.word	0x0800292b

08002a88 <UART_SetConfig>:
 8002a88:	6802      	ldr	r2, [r0, #0]
 8002a8a:	6881      	ldr	r1, [r0, #8]
 8002a8c:	b538      	push	{r3, r4, r5, lr}
 8002a8e:	4604      	mov	r4, r0
 8002a90:	69c3      	ldr	r3, [r0, #28]
 8002a92:	6900      	ldr	r0, [r0, #16]
 8002a94:	6815      	ldr	r5, [r2, #0]
 8002a96:	4301      	orrs	r1, r0
 8002a98:	6960      	ldr	r0, [r4, #20]
 8002a9a:	4301      	orrs	r1, r0
 8002a9c:	489f      	ldr	r0, [pc, #636]	; (8002d1c <UART_SetConfig+0x294>)
 8002a9e:	4319      	orrs	r1, r3
 8002aa0:	4028      	ands	r0, r5
 8002aa2:	6a25      	ldr	r5, [r4, #32]
 8002aa4:	4301      	orrs	r1, r0
 8002aa6:	68e0      	ldr	r0, [r4, #12]
 8002aa8:	6011      	str	r1, [r2, #0]
 8002aaa:	6851      	ldr	r1, [r2, #4]
 8002aac:	f421 5140 	bic.w	r1, r1, #12288	; 0x3000
 8002ab0:	4301      	orrs	r1, r0
 8002ab2:	6051      	str	r1, [r2, #4]
 8002ab4:	69a1      	ldr	r1, [r4, #24]
 8002ab6:	6890      	ldr	r0, [r2, #8]
 8002ab8:	4329      	orrs	r1, r5
 8002aba:	f420 6030 	bic.w	r0, r0, #2816	; 0xb00
 8002abe:	4301      	orrs	r1, r0
 8002ac0:	6091      	str	r1, [r2, #8]
 8002ac2:	4997      	ldr	r1, [pc, #604]	; (8002d20 <UART_SetConfig+0x298>)
 8002ac4:	428a      	cmp	r2, r1
 8002ac6:	d11c      	bne.n	8002b02 <UART_SetConfig+0x7a>
 8002ac8:	4a96      	ldr	r2, [pc, #600]	; (8002d24 <UART_SetConfig+0x29c>)
 8002aca:	f8d2 2090 	ldr.w	r2, [r2, #144]	; 0x90
 8002ace:	f002 0203 	and.w	r2, r2, #3
 8002ad2:	3a01      	subs	r2, #1
 8002ad4:	2a02      	cmp	r2, #2
 8002ad6:	f200 8111 	bhi.w	8002cfc <UART_SetConfig+0x274>
 8002ada:	4993      	ldr	r1, [pc, #588]	; (8002d28 <UART_SetConfig+0x2a0>)
 8002adc:	f5b3 4f00 	cmp.w	r3, #32768	; 0x8000
 8002ae0:	5c8a      	ldrb	r2, [r1, r2]
 8002ae2:	f040 80c4 	bne.w	8002c6e <UART_SetConfig+0x1e6>
 8002ae6:	2a08      	cmp	r2, #8
 8002ae8:	f200 80b6 	bhi.w	8002c58 <UART_SetConfig+0x1d0>
 8002aec:	e8df f012 	tbh	[pc, r2, lsl #1]
 8002af0:	0109009f 	.word	0x0109009f
 8002af4:	00b400f9 	.word	0x00b400f9
 8002af8:	00b40103 	.word	0x00b40103
 8002afc:	00b400b4 	.word	0x00b400b4
 8002b00:	0032      	.short	0x0032
 8002b02:	498a      	ldr	r1, [pc, #552]	; (8002d2c <UART_SetConfig+0x2a4>)
 8002b04:	428a      	cmp	r2, r1
 8002b06:	d106      	bne.n	8002b16 <UART_SetConfig+0x8e>
 8002b08:	4a86      	ldr	r2, [pc, #536]	; (8002d24 <UART_SetConfig+0x29c>)
 8002b0a:	4989      	ldr	r1, [pc, #548]	; (8002d30 <UART_SetConfig+0x2a8>)
 8002b0c:	f8d2 2090 	ldr.w	r2, [r2, #144]	; 0x90
 8002b10:	f002 020c 	and.w	r2, r2, #12
 8002b14:	e7e2      	b.n	8002adc <UART_SetConfig+0x54>
 8002b16:	4987      	ldr	r1, [pc, #540]	; (8002d34 <UART_SetConfig+0x2ac>)
 8002b18:	428a      	cmp	r2, r1
 8002b1a:	d120      	bne.n	8002b5e <UART_SetConfig+0xd6>
 8002b1c:	4a81      	ldr	r2, [pc, #516]	; (8002d24 <UART_SetConfig+0x29c>)
 8002b1e:	f8d2 2090 	ldr.w	r2, [r2, #144]	; 0x90
 8002b22:	f002 0230 	and.w	r2, r2, #48	; 0x30
 8002b26:	2a20      	cmp	r2, #32
 8002b28:	f000 80d8 	beq.w	8002cdc <UART_SetConfig+0x254>
 8002b2c:	d80c      	bhi.n	8002b48 <UART_SetConfig+0xc0>
 8002b2e:	2a00      	cmp	r2, #0
 8002b30:	f000 80ea 	beq.w	8002d08 <UART_SetConfig+0x280>
 8002b34:	2a10      	cmp	r2, #16
 8002b36:	f000 80db 	beq.w	8002cf0 <UART_SetConfig+0x268>
 8002b3a:	f5b3 4f00 	cmp.w	r3, #32768	; 0x8000
 8002b3e:	f000 808b 	beq.w	8002c58 <UART_SetConfig+0x1d0>
 8002b42:	2001      	movs	r0, #1
 8002b44:	2300      	movs	r3, #0
 8002b46:	e0b8      	b.n	8002cba <UART_SetConfig+0x232>
 8002b48:	2a30      	cmp	r2, #48	; 0x30
 8002b4a:	d1f6      	bne.n	8002b3a <UART_SetConfig+0xb2>
 8002b4c:	f5b3 4f00 	cmp.w	r3, #32768	; 0x8000
 8002b50:	f040 80bf 	bne.w	8002cd2 <UART_SetConfig+0x24a>
 8002b54:	6862      	ldr	r2, [r4, #4]
 8002b56:	0853      	lsrs	r3, r2, #1
 8002b58:	f503 3380 	add.w	r3, r3, #65536	; 0x10000
 8002b5c:	e06d      	b.n	8002c3a <UART_SetConfig+0x1b2>
 8002b5e:	4976      	ldr	r1, [pc, #472]	; (8002d38 <UART_SetConfig+0x2b0>)
 8002b60:	428a      	cmp	r2, r1
 8002b62:	d10f      	bne.n	8002b84 <UART_SetConfig+0xfc>
 8002b64:	4a6f      	ldr	r2, [pc, #444]	; (8002d24 <UART_SetConfig+0x29c>)
 8002b66:	f8d2 2090 	ldr.w	r2, [r2, #144]	; 0x90
 8002b6a:	f002 02c0 	and.w	r2, r2, #192	; 0xc0
 8002b6e:	2a80      	cmp	r2, #128	; 0x80
 8002b70:	f000 80b4 	beq.w	8002cdc <UART_SetConfig+0x254>
 8002b74:	d804      	bhi.n	8002b80 <UART_SetConfig+0xf8>
 8002b76:	2a00      	cmp	r2, #0
 8002b78:	f000 80c6 	beq.w	8002d08 <UART_SetConfig+0x280>
 8002b7c:	2a40      	cmp	r2, #64	; 0x40
 8002b7e:	e7da      	b.n	8002b36 <UART_SetConfig+0xae>
 8002b80:	2ac0      	cmp	r2, #192	; 0xc0
 8002b82:	e7e2      	b.n	8002b4a <UART_SetConfig+0xc2>
 8002b84:	496d      	ldr	r1, [pc, #436]	; (8002d3c <UART_SetConfig+0x2b4>)
 8002b86:	428a      	cmp	r2, r1
 8002b88:	d112      	bne.n	8002bb0 <UART_SetConfig+0x128>
 8002b8a:	4a66      	ldr	r2, [pc, #408]	; (8002d24 <UART_SetConfig+0x29c>)
 8002b8c:	f8d2 2090 	ldr.w	r2, [r2, #144]	; 0x90
 8002b90:	f402 7240 	and.w	r2, r2, #768	; 0x300
 8002b94:	f5b2 7f00 	cmp.w	r2, #512	; 0x200
 8002b98:	f000 80a0 	beq.w	8002cdc <UART_SetConfig+0x254>
 8002b9c:	d805      	bhi.n	8002baa <UART_SetConfig+0x122>
 8002b9e:	2a00      	cmp	r2, #0
 8002ba0:	f000 80b2 	beq.w	8002d08 <UART_SetConfig+0x280>
 8002ba4:	f5b2 7f80 	cmp.w	r2, #256	; 0x100
 8002ba8:	e7c5      	b.n	8002b36 <UART_SetConfig+0xae>
 8002baa:	f5b2 7f40 	cmp.w	r2, #768	; 0x300
 8002bae:	e7cc      	b.n	8002b4a <UART_SetConfig+0xc2>
 8002bb0:	4963      	ldr	r1, [pc, #396]	; (8002d40 <UART_SetConfig+0x2b8>)
 8002bb2:	428a      	cmp	r2, r1
 8002bb4:	d112      	bne.n	8002bdc <UART_SetConfig+0x154>
 8002bb6:	4a5b      	ldr	r2, [pc, #364]	; (8002d24 <UART_SetConfig+0x29c>)
 8002bb8:	f8d2 2090 	ldr.w	r2, [r2, #144]	; 0x90
 8002bbc:	f402 6240 	and.w	r2, r2, #3072	; 0xc00
 8002bc0:	f5b2 6f00 	cmp.w	r2, #2048	; 0x800
 8002bc4:	f000 808a 	beq.w	8002cdc <UART_SetConfig+0x254>
 8002bc8:	d805      	bhi.n	8002bd6 <UART_SetConfig+0x14e>
 8002bca:	2a00      	cmp	r2, #0
 8002bcc:	f000 8096 	beq.w	8002cfc <UART_SetConfig+0x274>
 8002bd0:	f5b2 6f80 	cmp.w	r2, #1024	; 0x400
 8002bd4:	e7af      	b.n	8002b36 <UART_SetConfig+0xae>
 8002bd6:	f5b2 6f40 	cmp.w	r2, #3072	; 0xc00
 8002bda:	e7b6      	b.n	8002b4a <UART_SetConfig+0xc2>
 8002bdc:	4959      	ldr	r1, [pc, #356]	; (8002d44 <UART_SetConfig+0x2bc>)
 8002bde:	428a      	cmp	r2, r1
 8002be0:	d111      	bne.n	8002c06 <UART_SetConfig+0x17e>
 8002be2:	4a50      	ldr	r2, [pc, #320]	; (8002d24 <UART_SetConfig+0x29c>)
 8002be4:	f8d2 2090 	ldr.w	r2, [r2, #144]	; 0x90
 8002be8:	f402 5240 	and.w	r2, r2, #12288	; 0x3000
 8002bec:	f5b2 5f00 	cmp.w	r2, #8192	; 0x2000
 8002bf0:	d074      	beq.n	8002cdc <UART_SetConfig+0x254>
 8002bf2:	d805      	bhi.n	8002c00 <UART_SetConfig+0x178>
 8002bf4:	2a00      	cmp	r2, #0
 8002bf6:	f000 8087 	beq.w	8002d08 <UART_SetConfig+0x280>
 8002bfa:	f5b2 5f80 	cmp.w	r2, #4096	; 0x1000
 8002bfe:	e79a      	b.n	8002b36 <UART_SetConfig+0xae>
 8002c00:	f5b2 5f40 	cmp.w	r2, #12288	; 0x3000
 8002c04:	e7a1      	b.n	8002b4a <UART_SetConfig+0xc2>
 8002c06:	4950      	ldr	r1, [pc, #320]	; (8002d48 <UART_SetConfig+0x2c0>)
 8002c08:	428a      	cmp	r2, r1
 8002c0a:	d196      	bne.n	8002b3a <UART_SetConfig+0xb2>
 8002c0c:	4a45      	ldr	r2, [pc, #276]	; (8002d24 <UART_SetConfig+0x29c>)
 8002c0e:	f8d2 2090 	ldr.w	r2, [r2, #144]	; 0x90
 8002c12:	f402 4240 	and.w	r2, r2, #49152	; 0xc000
 8002c16:	f5b2 4f00 	cmp.w	r2, #32768	; 0x8000
 8002c1a:	d05f      	beq.n	8002cdc <UART_SetConfig+0x254>
 8002c1c:	d804      	bhi.n	8002c28 <UART_SetConfig+0x1a0>
 8002c1e:	2a00      	cmp	r2, #0
 8002c20:	d072      	beq.n	8002d08 <UART_SetConfig+0x280>
 8002c22:	f5b2 4f80 	cmp.w	r2, #16384	; 0x4000
 8002c26:	e786      	b.n	8002b36 <UART_SetConfig+0xae>
 8002c28:	f5b2 4f40 	cmp.w	r2, #49152	; 0xc000
 8002c2c:	e78d      	b.n	8002b4a <UART_SetConfig+0xc2>
 8002c2e:	f7ff fa23 	bl	8002078 <HAL_RCC_GetPCLK1Freq>
 8002c32:	6862      	ldr	r2, [r4, #4]
 8002c34:	0853      	lsrs	r3, r2, #1
 8002c36:	eb03 0340 	add.w	r3, r3, r0, lsl #1
 8002c3a:	2000      	movs	r0, #0
 8002c3c:	fbb3 f3f2 	udiv	r3, r3, r2
 8002c40:	b29b      	uxth	r3, r3
 8002c42:	f1a3 0110 	sub.w	r1, r3, #16
 8002c46:	f64f 72ef 	movw	r2, #65519	; 0xffef
 8002c4a:	4291      	cmp	r1, r2
 8002c4c:	d907      	bls.n	8002c5e <UART_SetConfig+0x1d6>
 8002c4e:	2001      	movs	r0, #1
 8002c50:	2300      	movs	r3, #0
 8002c52:	e9c4 3318 	strd	r3, r3, [r4, #96]	; 0x60
 8002c56:	bd38      	pop	{r3, r4, r5, pc}
 8002c58:	2001      	movs	r0, #1
 8002c5a:	2300      	movs	r3, #0
 8002c5c:	e7f1      	b.n	8002c42 <UART_SetConfig+0x1ba>
 8002c5e:	f023 020f 	bic.w	r2, r3, #15
 8002c62:	f3c3 0342 	ubfx	r3, r3, #1, #3
 8002c66:	6821      	ldr	r1, [r4, #0]
 8002c68:	4313      	orrs	r3, r2
 8002c6a:	60cb      	str	r3, [r1, #12]
 8002c6c:	e7f0      	b.n	8002c50 <UART_SetConfig+0x1c8>
 8002c6e:	2a08      	cmp	r2, #8
 8002c70:	f63f af67 	bhi.w	8002b42 <UART_SetConfig+0xba>
 8002c74:	a301      	add	r3, pc, #4	; (adr r3, 8002c7c <UART_SetConfig+0x1f4>)
 8002c76:	f853 f022 	ldr.w	pc, [r3, r2, lsl #2]
 8002c7a:	bf00      	nop
 8002c7c:	08002d0f 	.word	0x08002d0f
 8002c80:	08002ca1 	.word	0x08002ca1
 8002c84:	08002ca7 	.word	0x08002ca7
 8002c88:	08002b43 	.word	0x08002b43
 8002c8c:	08002ccd 	.word	0x08002ccd
 8002c90:	08002b43 	.word	0x08002b43
 8002c94:	08002b43 	.word	0x08002b43
 8002c98:	08002b43 	.word	0x08002b43
 8002c9c:	08002cd3 	.word	0x08002cd3
 8002ca0:	f7ff f9fa 	bl	8002098 <HAL_RCC_GetPCLK2Freq>
 8002ca4:	e035      	b.n	8002d12 <UART_SetConfig+0x28a>
 8002ca6:	6862      	ldr	r2, [r4, #4]
 8002ca8:	0853      	lsrs	r3, r2, #1
 8002caa:	f503 0374 	add.w	r3, r3, #15990784	; 0xf40000
 8002cae:	f503 5310 	add.w	r3, r3, #9216	; 0x2400
 8002cb2:	2000      	movs	r0, #0
 8002cb4:	fbb3 f3f2 	udiv	r3, r3, r2
 8002cb8:	b29b      	uxth	r3, r3
 8002cba:	f1a3 0110 	sub.w	r1, r3, #16
 8002cbe:	f64f 72ef 	movw	r2, #65519	; 0xffef
 8002cc2:	4291      	cmp	r1, r2
 8002cc4:	d8c3      	bhi.n	8002c4e <UART_SetConfig+0x1c6>
 8002cc6:	6822      	ldr	r2, [r4, #0]
 8002cc8:	60d3      	str	r3, [r2, #12]
 8002cca:	e7c1      	b.n	8002c50 <UART_SetConfig+0x1c8>
 8002ccc:	f7ff f908 	bl	8001ee0 <HAL_RCC_GetSysClockFreq>
 8002cd0:	e01f      	b.n	8002d12 <UART_SetConfig+0x28a>
 8002cd2:	6862      	ldr	r2, [r4, #4]
 8002cd4:	0853      	lsrs	r3, r2, #1
 8002cd6:	f503 4300 	add.w	r3, r3, #32768	; 0x8000
 8002cda:	e7ea      	b.n	8002cb2 <UART_SetConfig+0x22a>
 8002cdc:	f5b3 4f00 	cmp.w	r3, #32768	; 0x8000
 8002ce0:	d1e1      	bne.n	8002ca6 <UART_SetConfig+0x21e>
 8002ce2:	6862      	ldr	r2, [r4, #4]
 8002ce4:	0853      	lsrs	r3, r2, #1
 8002ce6:	f103 73f4 	add.w	r3, r3, #31981568	; 0x1e80000
 8002cea:	f503 4390 	add.w	r3, r3, #18432	; 0x4800
 8002cee:	e7a4      	b.n	8002c3a <UART_SetConfig+0x1b2>
 8002cf0:	f5b3 4f00 	cmp.w	r3, #32768	; 0x8000
 8002cf4:	d1ea      	bne.n	8002ccc <UART_SetConfig+0x244>
 8002cf6:	f7ff f8f3 	bl	8001ee0 <HAL_RCC_GetSysClockFreq>
 8002cfa:	e79a      	b.n	8002c32 <UART_SetConfig+0x1aa>
 8002cfc:	f5b3 4f00 	cmp.w	r3, #32768	; 0x8000
 8002d00:	d1ce      	bne.n	8002ca0 <UART_SetConfig+0x218>
 8002d02:	f7ff f9c9 	bl	8002098 <HAL_RCC_GetPCLK2Freq>
 8002d06:	e794      	b.n	8002c32 <UART_SetConfig+0x1aa>
 8002d08:	f5b3 4f00 	cmp.w	r3, #32768	; 0x8000
 8002d0c:	d08f      	beq.n	8002c2e <UART_SetConfig+0x1a6>
 8002d0e:	f7ff f9b3 	bl	8002078 <HAL_RCC_GetPCLK1Freq>
 8002d12:	6862      	ldr	r2, [r4, #4]
 8002d14:	eb00 0352 	add.w	r3, r0, r2, lsr #1
 8002d18:	e7cb      	b.n	8002cb2 <UART_SetConfig+0x22a>
 8002d1a:	bf00      	nop
 8002d1c:	efff69f3 	.word	0xefff69f3
 8002d20:	40011000 	.word	0x40011000
 8002d24:	40023800 	.word	0x40023800
 8002d28:	08005723 	.word	0x08005723
 8002d2c:	40004400 	.word	0x40004400
 8002d30:	08005726 	.word	0x08005726
 8002d34:	40004800 	.word	0x40004800
 8002d38:	40004c00 	.word	0x40004c00
 8002d3c:	40005000 	.word	0x40005000
 8002d40:	40011400 	.word	0x40011400
 8002d44:	40007800 	.word	0x40007800
 8002d48:	40007c00 	.word	0x40007c00

08002d4c <UART_AdvFeatureConfig>:
 8002d4c:	6a43      	ldr	r3, [r0, #36]	; 0x24
 8002d4e:	07da      	lsls	r2, r3, #31
 8002d50:	b510      	push	{r4, lr}
 8002d52:	d506      	bpl.n	8002d62 <UART_AdvFeatureConfig+0x16>
 8002d54:	6801      	ldr	r1, [r0, #0]
 8002d56:	6a84      	ldr	r4, [r0, #40]	; 0x28
 8002d58:	684a      	ldr	r2, [r1, #4]
 8002d5a:	f422 3200 	bic.w	r2, r2, #131072	; 0x20000
 8002d5e:	4322      	orrs	r2, r4
 8002d60:	604a      	str	r2, [r1, #4]
 8002d62:	079c      	lsls	r4, r3, #30
 8002d64:	d506      	bpl.n	8002d74 <UART_AdvFeatureConfig+0x28>
 8002d66:	6801      	ldr	r1, [r0, #0]
 8002d68:	6ac4      	ldr	r4, [r0, #44]	; 0x2c
 8002d6a:	684a      	ldr	r2, [r1, #4]
 8002d6c:	f422 3280 	bic.w	r2, r2, #65536	; 0x10000
 8002d70:	4322      	orrs	r2, r4
 8002d72:	604a      	str	r2, [r1, #4]
 8002d74:	0759      	lsls	r1, r3, #29
 8002d76:	d506      	bpl.n	8002d86 <UART_AdvFeatureConfig+0x3a>
 8002d78:	6801      	ldr	r1, [r0, #0]
 8002d7a:	6b04      	ldr	r4, [r0, #48]	; 0x30
 8002d7c:	684a      	ldr	r2, [r1, #4]
 8002d7e:	f422 2280 	bic.w	r2, r2, #262144	; 0x40000
 8002d82:	4322      	orrs	r2, r4
 8002d84:	604a      	str	r2, [r1, #4]
 8002d86:	071a      	lsls	r2, r3, #28
 8002d88:	d506      	bpl.n	8002d98 <UART_AdvFeatureConfig+0x4c>
 8002d8a:	6801      	ldr	r1, [r0, #0]
 8002d8c:	6b44      	ldr	r4, [r0, #52]	; 0x34
 8002d8e:	684a      	ldr	r2, [r1, #4]
 8002d90:	f422 4200 	bic.w	r2, r2, #32768	; 0x8000
 8002d94:	4322      	orrs	r2, r4
 8002d96:	604a      	str	r2, [r1, #4]
 8002d98:	06dc      	lsls	r4, r3, #27
 8002d9a:	d506      	bpl.n	8002daa <UART_AdvFeatureConfig+0x5e>
 8002d9c:	6801      	ldr	r1, [r0, #0]
 8002d9e:	6b84      	ldr	r4, [r0, #56]	; 0x38
 8002da0:	688a      	ldr	r2, [r1, #8]
 8002da2:	f422 5280 	bic.w	r2, r2, #4096	; 0x1000
 8002da6:	4322      	orrs	r2, r4
 8002da8:	608a      	str	r2, [r1, #8]
 8002daa:	0699      	lsls	r1, r3, #26
 8002dac:	d506      	bpl.n	8002dbc <UART_AdvFeatureConfig+0x70>
 8002dae:	6801      	ldr	r1, [r0, #0]
 8002db0:	6bc4      	ldr	r4, [r0, #60]	; 0x3c
 8002db2:	688a      	ldr	r2, [r1, #8]
 8002db4:	f422 5200 	bic.w	r2, r2, #8192	; 0x2000
 8002db8:	4322      	orrs	r2, r4
 8002dba:	608a      	str	r2, [r1, #8]
 8002dbc:	065a      	lsls	r2, r3, #25
 8002dbe:	d510      	bpl.n	8002de2 <UART_AdvFeatureConfig+0x96>
 8002dc0:	6801      	ldr	r1, [r0, #0]
 8002dc2:	6c04      	ldr	r4, [r0, #64]	; 0x40
 8002dc4:	684a      	ldr	r2, [r1, #4]
 8002dc6:	f5b4 1f80 	cmp.w	r4, #1048576	; 0x100000
 8002dca:	f422 1280 	bic.w	r2, r2, #1048576	; 0x100000
 8002dce:	ea42 0204 	orr.w	r2, r2, r4
 8002dd2:	604a      	str	r2, [r1, #4]
 8002dd4:	d105      	bne.n	8002de2 <UART_AdvFeatureConfig+0x96>
 8002dd6:	684a      	ldr	r2, [r1, #4]
 8002dd8:	6c44      	ldr	r4, [r0, #68]	; 0x44
 8002dda:	f422 02c0 	bic.w	r2, r2, #6291456	; 0x600000
 8002dde:	4322      	orrs	r2, r4
 8002de0:	604a      	str	r2, [r1, #4]
 8002de2:	061b      	lsls	r3, r3, #24
 8002de4:	d506      	bpl.n	8002df4 <UART_AdvFeatureConfig+0xa8>
 8002de6:	6802      	ldr	r2, [r0, #0]
 8002de8:	6c81      	ldr	r1, [r0, #72]	; 0x48
 8002dea:	6853      	ldr	r3, [r2, #4]
 8002dec:	f423 2300 	bic.w	r3, r3, #524288	; 0x80000
 8002df0:	430b      	orrs	r3, r1
 8002df2:	6053      	str	r3, [r2, #4]
 8002df4:	bd10      	pop	{r4, pc}

08002df6 <UART_WaitOnFlagUntilTimeout>:
 8002df6:	e92d 41f0 	stmdb	sp!, {r4, r5, r6, r7, r8, lr}
 8002dfa:	f8dd 8018 	ldr.w	r8, [sp, #24]
 8002dfe:	4604      	mov	r4, r0
 8002e00:	460e      	mov	r6, r1
 8002e02:	4615      	mov	r5, r2
 8002e04:	461f      	mov	r7, r3
 8002e06:	6822      	ldr	r2, [r4, #0]
 8002e08:	69d3      	ldr	r3, [r2, #28]
 8002e0a:	ea36 0303 	bics.w	r3, r6, r3
 8002e0e:	bf0c      	ite	eq
 8002e10:	2301      	moveq	r3, #1
 8002e12:	2300      	movne	r3, #0
 8002e14:	42ab      	cmp	r3, r5
 8002e16:	d001      	beq.n	8002e1c <UART_WaitOnFlagUntilTimeout+0x26>
 8002e18:	2000      	movs	r0, #0
 8002e1a:	e01a      	b.n	8002e52 <UART_WaitOnFlagUntilTimeout+0x5c>
 8002e1c:	f1b8 3fff 	cmp.w	r8, #4294967295
 8002e20:	d0f2      	beq.n	8002e08 <UART_WaitOnFlagUntilTimeout+0x12>
 8002e22:	f7fd ffbf 	bl	8000da4 <HAL_GetTick>
 8002e26:	1bc0      	subs	r0, r0, r7
 8002e28:	4540      	cmp	r0, r8
 8002e2a:	6820      	ldr	r0, [r4, #0]
 8002e2c:	6803      	ldr	r3, [r0, #0]
 8002e2e:	d802      	bhi.n	8002e36 <UART_WaitOnFlagUntilTimeout+0x40>
 8002e30:	f1b8 0f00 	cmp.w	r8, #0
 8002e34:	d10f      	bne.n	8002e56 <UART_WaitOnFlagUntilTimeout+0x60>
 8002e36:	f423 73d0 	bic.w	r3, r3, #416	; 0x1a0
 8002e3a:	6003      	str	r3, [r0, #0]
 8002e3c:	6883      	ldr	r3, [r0, #8]
 8002e3e:	f023 0301 	bic.w	r3, r3, #1
 8002e42:	6083      	str	r3, [r0, #8]
 8002e44:	2320      	movs	r3, #32
 8002e46:	6763      	str	r3, [r4, #116]	; 0x74
 8002e48:	67a3      	str	r3, [r4, #120]	; 0x78
 8002e4a:	2300      	movs	r3, #0
 8002e4c:	2003      	movs	r0, #3
 8002e4e:	f884 3070 	strb.w	r3, [r4, #112]	; 0x70
 8002e52:	e8bd 81f0 	ldmia.w	sp!, {r4, r5, r6, r7, r8, pc}
 8002e56:	075a      	lsls	r2, r3, #29
 8002e58:	d5d5      	bpl.n	8002e06 <UART_WaitOnFlagUntilTimeout+0x10>
 8002e5a:	69c3      	ldr	r3, [r0, #28]
 8002e5c:	051b      	lsls	r3, r3, #20
 8002e5e:	d5d2      	bpl.n	8002e06 <UART_WaitOnFlagUntilTimeout+0x10>
 8002e60:	f44f 6300 	mov.w	r3, #2048	; 0x800
 8002e64:	6203      	str	r3, [r0, #32]
 8002e66:	6803      	ldr	r3, [r0, #0]
 8002e68:	f423 73d0 	bic.w	r3, r3, #416	; 0x1a0
 8002e6c:	6003      	str	r3, [r0, #0]
 8002e6e:	6883      	ldr	r3, [r0, #8]
 8002e70:	f023 0301 	bic.w	r3, r3, #1
 8002e74:	6083      	str	r3, [r0, #8]
 8002e76:	2320      	movs	r3, #32
 8002e78:	6763      	str	r3, [r4, #116]	; 0x74
 8002e7a:	67a3      	str	r3, [r4, #120]	; 0x78
 8002e7c:	67e3      	str	r3, [r4, #124]	; 0x7c
 8002e7e:	e7e4      	b.n	8002e4a <UART_WaitOnFlagUntilTimeout+0x54>

08002e80 <HAL_UART_Transmit>:
 8002e80:	e92d 41ff 	stmdb	sp!, {r0, r1, r2, r3, r4, r5, r6, r7, r8, lr}
 8002e84:	4698      	mov	r8, r3
 8002e86:	6f43      	ldr	r3, [r0, #116]	; 0x74
 8002e88:	4604      	mov	r4, r0
 8002e8a:	460e      	mov	r6, r1
 8002e8c:	2b20      	cmp	r3, #32
 8002e8e:	4617      	mov	r7, r2
 8002e90:	d14d      	bne.n	8002f2e <HAL_UART_Transmit+0xae>
 8002e92:	2900      	cmp	r1, #0
 8002e94:	d049      	beq.n	8002f2a <HAL_UART_Transmit+0xaa>
 8002e96:	2a00      	cmp	r2, #0
 8002e98:	d047      	beq.n	8002f2a <HAL_UART_Transmit+0xaa>
 8002e9a:	f890 3070 	ldrb.w	r3, [r0, #112]	; 0x70
 8002e9e:	2b01      	cmp	r3, #1
 8002ea0:	d045      	beq.n	8002f2e <HAL_UART_Transmit+0xae>
 8002ea2:	2301      	movs	r3, #1
 8002ea4:	2500      	movs	r5, #0
 8002ea6:	f880 3070 	strb.w	r3, [r0, #112]	; 0x70
 8002eaa:	2321      	movs	r3, #33	; 0x21
 8002eac:	67c5      	str	r5, [r0, #124]	; 0x7c
 8002eae:	6743      	str	r3, [r0, #116]	; 0x74
 8002eb0:	f7fd ff78 	bl	8000da4 <HAL_GetTick>
 8002eb4:	68a2      	ldr	r2, [r4, #8]
 8002eb6:	4603      	mov	r3, r0
 8002eb8:	f8a4 7050 	strh.w	r7, [r4, #80]	; 0x50
 8002ebc:	f5b2 5f80 	cmp.w	r2, #4096	; 0x1000
 8002ec0:	f8a4 7052 	strh.w	r7, [r4, #82]	; 0x52
 8002ec4:	d103      	bne.n	8002ece <HAL_UART_Transmit+0x4e>
 8002ec6:	6922      	ldr	r2, [r4, #16]
 8002ec8:	b90a      	cbnz	r2, 8002ece <HAL_UART_Transmit+0x4e>
 8002eca:	4635      	mov	r5, r6
 8002ecc:	4616      	mov	r6, r2
 8002ece:	2200      	movs	r2, #0
 8002ed0:	f884 2070 	strb.w	r2, [r4, #112]	; 0x70
 8002ed4:	f8b4 2052 	ldrh.w	r2, [r4, #82]	; 0x52
 8002ed8:	f8cd 8000 	str.w	r8, [sp]
 8002edc:	b292      	uxth	r2, r2
 8002ede:	b93a      	cbnz	r2, 8002ef0 <HAL_UART_Transmit+0x70>
 8002ee0:	2140      	movs	r1, #64	; 0x40
 8002ee2:	4620      	mov	r0, r4
 8002ee4:	f7ff ff87 	bl	8002df6 <UART_WaitOnFlagUntilTimeout>
 8002ee8:	b950      	cbnz	r0, 8002f00 <HAL_UART_Transmit+0x80>
 8002eea:	2320      	movs	r3, #32
 8002eec:	6763      	str	r3, [r4, #116]	; 0x74
 8002eee:	e008      	b.n	8002f02 <HAL_UART_Transmit+0x82>
 8002ef0:	2200      	movs	r2, #0
 8002ef2:	2180      	movs	r1, #128	; 0x80
 8002ef4:	4620      	mov	r0, r4
 8002ef6:	9303      	str	r3, [sp, #12]
 8002ef8:	f7ff ff7d 	bl	8002df6 <UART_WaitOnFlagUntilTimeout>
 8002efc:	9b03      	ldr	r3, [sp, #12]
 8002efe:	b118      	cbz	r0, 8002f08 <HAL_UART_Transmit+0x88>
 8002f00:	2003      	movs	r0, #3
 8002f02:	b004      	add	sp, #16
 8002f04:	e8bd 81f0 	ldmia.w	sp!, {r4, r5, r6, r7, r8, pc}
 8002f08:	6821      	ldr	r1, [r4, #0]
 8002f0a:	b95e      	cbnz	r6, 8002f24 <HAL_UART_Transmit+0xa4>
 8002f0c:	f835 2b02 	ldrh.w	r2, [r5], #2
 8002f10:	f3c2 0208 	ubfx	r2, r2, #0, #9
 8002f14:	628a      	str	r2, [r1, #40]	; 0x28
 8002f16:	f8b4 2052 	ldrh.w	r2, [r4, #82]	; 0x52
 8002f1a:	3a01      	subs	r2, #1
 8002f1c:	b292      	uxth	r2, r2
 8002f1e:	f8a4 2052 	strh.w	r2, [r4, #82]	; 0x52
 8002f22:	e7d7      	b.n	8002ed4 <HAL_UART_Transmit+0x54>
 8002f24:	f816 2b01 	ldrb.w	r2, [r6], #1
 8002f28:	e7f4      	b.n	8002f14 <HAL_UART_Transmit+0x94>
 8002f2a:	2001      	movs	r0, #1
 8002f2c:	e7e9      	b.n	8002f02 <HAL_UART_Transmit+0x82>
 8002f2e:	2002      	movs	r0, #2
 8002f30:	e7e7      	b.n	8002f02 <HAL_UART_Transmit+0x82>

08002f32 <UART_CheckIdleState>:
 8002f32:	b530      	push	{r4, r5, lr}
 8002f34:	2500      	movs	r5, #0
 8002f36:	4604      	mov	r4, r0
 8002f38:	b085      	sub	sp, #20
 8002f3a:	67c5      	str	r5, [r0, #124]	; 0x7c
 8002f3c:	f7fd ff32 	bl	8000da4 <HAL_GetTick>
 8002f40:	6822      	ldr	r2, [r4, #0]
 8002f42:	4603      	mov	r3, r0
 8002f44:	6812      	ldr	r2, [r2, #0]
 8002f46:	0711      	lsls	r1, r2, #28
 8002f48:	d414      	bmi.n	8002f74 <UART_CheckIdleState+0x42>
 8002f4a:	6822      	ldr	r2, [r4, #0]
 8002f4c:	6812      	ldr	r2, [r2, #0]
 8002f4e:	0752      	lsls	r2, r2, #29
 8002f50:	d509      	bpl.n	8002f66 <UART_CheckIdleState+0x34>
 8002f52:	f06f 427e 	mvn.w	r2, #4261412864	; 0xfe000000
 8002f56:	f44f 0180 	mov.w	r1, #4194304	; 0x400000
 8002f5a:	4620      	mov	r0, r4
 8002f5c:	9200      	str	r2, [sp, #0]
 8002f5e:	2200      	movs	r2, #0
 8002f60:	f7ff ff49 	bl	8002df6 <UART_WaitOnFlagUntilTimeout>
 8002f64:	b998      	cbnz	r0, 8002f8e <UART_CheckIdleState+0x5c>
 8002f66:	2320      	movs	r3, #32
 8002f68:	2000      	movs	r0, #0
 8002f6a:	6763      	str	r3, [r4, #116]	; 0x74
 8002f6c:	f884 0070 	strb.w	r0, [r4, #112]	; 0x70
 8002f70:	67a3      	str	r3, [r4, #120]	; 0x78
 8002f72:	e00d      	b.n	8002f90 <UART_CheckIdleState+0x5e>
 8002f74:	f06f 427e 	mvn.w	r2, #4261412864	; 0xfe000000
 8002f78:	9003      	str	r0, [sp, #12]
 8002f7a:	f44f 1100 	mov.w	r1, #2097152	; 0x200000
 8002f7e:	4620      	mov	r0, r4
 8002f80:	9200      	str	r2, [sp, #0]
 8002f82:	462a      	mov	r2, r5
 8002f84:	f7ff ff37 	bl	8002df6 <UART_WaitOnFlagUntilTimeout>
 8002f88:	9b03      	ldr	r3, [sp, #12]
 8002f8a:	2800      	cmp	r0, #0
 8002f8c:	d0dd      	beq.n	8002f4a <UART_CheckIdleState+0x18>
 8002f8e:	2003      	movs	r0, #3
 8002f90:	b005      	add	sp, #20
 8002f92:	bd30      	pop	{r4, r5, pc}

08002f94 <HAL_UART_Init>:
 8002f94:	b510      	push	{r4, lr}
 8002f96:	4604      	mov	r4, r0
 8002f98:	b340      	cbz	r0, 8002fec <HAL_UART_Init+0x58>
 8002f9a:	6f43      	ldr	r3, [r0, #116]	; 0x74
 8002f9c:	b91b      	cbnz	r3, 8002fa6 <HAL_UART_Init+0x12>
 8002f9e:	f880 3070 	strb.w	r3, [r0, #112]	; 0x70
 8002fa2:	f7fd fdf3 	bl	8000b8c <HAL_UART_MspInit>
 8002fa6:	6822      	ldr	r2, [r4, #0]
 8002fa8:	2324      	movs	r3, #36	; 0x24
 8002faa:	4620      	mov	r0, r4
 8002fac:	6763      	str	r3, [r4, #116]	; 0x74
 8002fae:	6813      	ldr	r3, [r2, #0]
 8002fb0:	f023 0301 	bic.w	r3, r3, #1
 8002fb4:	6013      	str	r3, [r2, #0]
 8002fb6:	f7ff fd67 	bl	8002a88 <UART_SetConfig>
 8002fba:	2801      	cmp	r0, #1
 8002fbc:	d016      	beq.n	8002fec <HAL_UART_Init+0x58>
 8002fbe:	6a63      	ldr	r3, [r4, #36]	; 0x24
 8002fc0:	b113      	cbz	r3, 8002fc8 <HAL_UART_Init+0x34>
 8002fc2:	4620      	mov	r0, r4
 8002fc4:	f7ff fec2 	bl	8002d4c <UART_AdvFeatureConfig>
 8002fc8:	6823      	ldr	r3, [r4, #0]
 8002fca:	4620      	mov	r0, r4
 8002fcc:	685a      	ldr	r2, [r3, #4]
 8002fce:	f422 4290 	bic.w	r2, r2, #18432	; 0x4800
 8002fd2:	605a      	str	r2, [r3, #4]
 8002fd4:	689a      	ldr	r2, [r3, #8]
 8002fd6:	f022 022a 	bic.w	r2, r2, #42	; 0x2a
 8002fda:	609a      	str	r2, [r3, #8]
 8002fdc:	681a      	ldr	r2, [r3, #0]
 8002fde:	f042 0201 	orr.w	r2, r2, #1
 8002fe2:	e8bd 4010 	ldmia.w	sp!, {r4, lr}
 8002fe6:	601a      	str	r2, [r3, #0]
 8002fe8:	f7ff bfa3 	b.w	8002f32 <UART_CheckIdleState>
 8002fec:	2001      	movs	r0, #1
 8002fee:	bd10      	pop	{r4, pc}

08002ff0 <maxim_peaks_above_min_height>:
 8002ff0:	e92d 41f0 	stmdb	sp!, {r4, r5, r6, r7, r8, lr}
 8002ff4:	2400      	movs	r4, #0
 8002ff6:	f103 38ff 	add.w	r8, r3, #4294967295
 8002ffa:	600c      	str	r4, [r1, #0]
 8002ffc:	2401      	movs	r4, #1
 8002ffe:	45a0      	cmp	r8, r4
 8003000:	dc01      	bgt.n	8003006 <maxim_peaks_above_min_height+0x16>
 8003002:	e8bd 81f0 	ldmia.w	sp!, {r4, r5, r6, r7, r8, pc}
 8003006:	9d06      	ldr	r5, [sp, #24]
 8003008:	00a6      	lsls	r6, r4, #2
 800300a:	f852 c024 	ldr.w	ip, [r2, r4, lsl #2]
 800300e:	45ac      	cmp	ip, r5
 8003010:	f104 0501 	add.w	r5, r4, #1
 8003014:	dd1c      	ble.n	8003050 <maxim_peaks_above_min_height+0x60>
 8003016:	4416      	add	r6, r2
 8003018:	f856 6c04 	ldr.w	r6, [r6, #-4]
 800301c:	45b4      	cmp	ip, r6
 800301e:	dd17      	ble.n	8003050 <maxim_peaks_above_min_height+0x60>
 8003020:	462e      	mov	r6, r5
 8003022:	429e      	cmp	r6, r3
 8003024:	eba6 0e04 	sub.w	lr, r6, r4
 8003028:	4635      	mov	r5, r6
 800302a:	f852 7026 	ldr.w	r7, [r2, r6, lsl #2]
 800302e:	d003      	beq.n	8003038 <maxim_peaks_above_min_height+0x48>
 8003030:	45bc      	cmp	ip, r7
 8003032:	f106 0601 	add.w	r6, r6, #1
 8003036:	d0f4      	beq.n	8003022 <maxim_peaks_above_min_height+0x32>
 8003038:	45bc      	cmp	ip, r7
 800303a:	dd09      	ble.n	8003050 <maxim_peaks_above_min_height+0x60>
 800303c:	680e      	ldr	r6, [r1, #0]
 800303e:	2e0e      	cmp	r6, #14
 8003040:	dc06      	bgt.n	8003050 <maxim_peaks_above_min_height+0x60>
 8003042:	1c75      	adds	r5, r6, #1
 8003044:	600d      	str	r5, [r1, #0]
 8003046:	f10e 0501 	add.w	r5, lr, #1
 800304a:	f840 4026 	str.w	r4, [r0, r6, lsl #2]
 800304e:	4425      	add	r5, r4
 8003050:	462c      	mov	r4, r5
 8003052:	e7d4      	b.n	8002ffe <maxim_peaks_above_min_height+0xe>

08003054 <maxim_sort_ascend>:
 8003054:	b5f0      	push	{r4, r5, r6, r7, lr}
 8003056:	2301      	movs	r3, #1
 8003058:	4604      	mov	r4, r0
 800305a:	428b      	cmp	r3, r1
 800305c:	db00      	blt.n	8003060 <maxim_sort_ascend+0xc>
 800305e:	bdf0      	pop	{r4, r5, r6, r7, pc}
 8003060:	f854 6f04 	ldr.w	r6, [r4, #4]!
 8003064:	461a      	mov	r2, r3
 8003066:	4625      	mov	r5, r4
 8003068:	f855 7c04 	ldr.w	r7, [r5, #-4]
 800306c:	42b7      	cmp	r7, r6
 800306e:	dd03      	ble.n	8003078 <maxim_sort_ascend+0x24>
 8003070:	3a01      	subs	r2, #1
 8003072:	f845 7904 	str.w	r7, [r5], #-4
 8003076:	d1f7      	bne.n	8003068 <maxim_sort_ascend+0x14>
 8003078:	3301      	adds	r3, #1
 800307a:	f840 6022 	str.w	r6, [r0, r2, lsl #2]
 800307e:	e7ec      	b.n	800305a <maxim_sort_ascend+0x6>

08003080 <maxim_sort_indices_descend>:
 8003080:	e92d 43f0 	stmdb	sp!, {r4, r5, r6, r7, r8, r9, lr}
 8003084:	2301      	movs	r3, #1
 8003086:	468e      	mov	lr, r1
 8003088:	4690      	mov	r8, r2
 800308a:	460d      	mov	r5, r1
 800308c:	4543      	cmp	r3, r8
 800308e:	db01      	blt.n	8003094 <maxim_sort_indices_descend+0x14>
 8003090:	e8bd 83f0 	ldmia.w	sp!, {r4, r5, r6, r7, r8, r9, pc}
 8003094:	f855 6f04 	ldr.w	r6, [r5, #4]!
 8003098:	461c      	mov	r4, r3
 800309a:	eb00 0986 	add.w	r9, r0, r6, lsl #2
 800309e:	46ac      	mov	ip, r5
 80030a0:	f85c 7c04 	ldr.w	r7, [ip, #-4]
 80030a4:	f8d9 2000 	ldr.w	r2, [r9]
 80030a8:	f850 1027 	ldr.w	r1, [r0, r7, lsl #2]
 80030ac:	428a      	cmp	r2, r1
 80030ae:	dd03      	ble.n	80030b8 <maxim_sort_indices_descend+0x38>
 80030b0:	3c01      	subs	r4, #1
 80030b2:	f84c 7904 	str.w	r7, [ip], #-4
 80030b6:	d1f3      	bne.n	80030a0 <maxim_sort_indices_descend+0x20>
 80030b8:	3301      	adds	r3, #1
 80030ba:	f84e 6024 	str.w	r6, [lr, r4, lsl #2]
 80030be:	e7e5      	b.n	800308c <maxim_sort_indices_descend+0xc>

080030c0 <maxim_remove_close_peaks>:
 80030c0:	b5f8      	push	{r3, r4, r5, r6, r7, lr}
 80030c2:	4604      	mov	r4, r0
 80030c4:	461e      	mov	r6, r3
 80030c6:	4610      	mov	r0, r2
 80030c8:	460d      	mov	r5, r1
 80030ca:	680a      	ldr	r2, [r1, #0]
 80030cc:	4621      	mov	r1, r4
 80030ce:	f7ff ffd7 	bl	8003080 <maxim_sort_indices_descend>
 80030d2:	f04f 32ff 	mov.w	r2, #4294967295
 80030d6:	f1c6 0e00 	rsb	lr, r6, #0
 80030da:	6829      	ldr	r1, [r5, #0]
 80030dc:	4291      	cmp	r1, r2
 80030de:	dc04      	bgt.n	80030ea <maxim_remove_close_peaks+0x2a>
 80030e0:	4620      	mov	r0, r4
 80030e2:	e8bd 40f8 	ldmia.w	sp!, {r3, r4, r5, r6, r7, lr}
 80030e6:	f7ff bfb5 	b.w	8003054 <maxim_sort_ascend>
 80030ea:	1c57      	adds	r7, r2, #1
 80030ec:	4638      	mov	r0, r7
 80030ee:	602f      	str	r7, [r5, #0]
 80030f0:	4281      	cmp	r1, r0
 80030f2:	d101      	bne.n	80030f8 <maxim_remove_close_peaks+0x38>
 80030f4:	463a      	mov	r2, r7
 80030f6:	e7f0      	b.n	80030da <maxim_remove_close_peaks+0x1a>
 80030f8:	f1b2 3fff 	cmp.w	r2, #4294967295
 80030fc:	f854 3020 	ldr.w	r3, [r4, r0, lsl #2]
 8003100:	bf14      	ite	ne
 8003102:	f854 c022 	ldrne.w	ip, [r4, r2, lsl #2]
 8003106:	4694      	moveq	ip, r2
 8003108:	eba3 030c 	sub.w	r3, r3, ip
 800310c:	42b3      	cmp	r3, r6
 800310e:	dc01      	bgt.n	8003114 <maxim_remove_close_peaks+0x54>
 8003110:	459e      	cmp	lr, r3
 8003112:	dd08      	ble.n	8003126 <maxim_remove_close_peaks+0x66>
 8003114:	f8d5 c000 	ldr.w	ip, [r5]
 8003118:	f10c 0301 	add.w	r3, ip, #1
 800311c:	602b      	str	r3, [r5, #0]
 800311e:	f854 3020 	ldr.w	r3, [r4, r0, lsl #2]
 8003122:	f844 302c 	str.w	r3, [r4, ip, lsl #2]
 8003126:	3001      	adds	r0, #1
 8003128:	e7e2      	b.n	80030f0 <maxim_remove_close_peaks+0x30>

0800312a <maxim_find_peaks>:
 800312a:	b537      	push	{r0, r1, r2, r4, r5, lr}
 800312c:	9d06      	ldr	r5, [sp, #24]
 800312e:	460c      	mov	r4, r1
 8003130:	9500      	str	r5, [sp, #0]
 8003132:	f7ff ff5d 	bl	8002ff0 <maxim_peaks_above_min_height>
 8003136:	9b07      	ldr	r3, [sp, #28]
 8003138:	f7ff ffc2 	bl	80030c0 <maxim_remove_close_peaks>
 800313c:	6822      	ldr	r2, [r4, #0]
 800313e:	9b08      	ldr	r3, [sp, #32]
 8003140:	429a      	cmp	r2, r3
 8003142:	bfd4      	ite	le
 8003144:	6022      	strle	r2, [r4, #0]
 8003146:	6023      	strgt	r3, [r4, #0]
 8003148:	b003      	add	sp, #12
 800314a:	bd30      	pop	{r4, r5, pc}

0800314c <maxim_heart_rate_and_oxygen_saturation>:
 800314c:	e92d 4ff0 	stmdb	sp!, {r4, r5, r6, r7, r8, r9, sl, fp, lr}
 8003150:	b0bb      	sub	sp, #236	; 0xec
 8003152:	4606      	mov	r6, r0
 8003154:	460d      	mov	r5, r1
 8003156:	e9cd 2304 	strd	r2, r3, [sp, #16]
 800315a:	2200      	movs	r2, #0
 800315c:	4613      	mov	r3, r2
 800315e:	42aa      	cmp	r2, r5
 8003160:	db4b      	blt.n	80031fa <maxim_heart_rate_and_oxygen_saturation+0xae>
 8003162:	4c9c      	ldr	r4, [pc, #624]	; (80033d4 <maxim_heart_rate_and_oxygen_saturation+0x288>)
 8003164:	2200      	movs	r2, #0
 8003166:	fbb3 f3f5 	udiv	r3, r3, r5
 800316a:	4620      	mov	r0, r4
 800316c:	42aa      	cmp	r2, r5
 800316e:	db49      	blt.n	8003204 <maxim_heart_rate_and_oxygen_saturation+0xb8>
 8003170:	4a98      	ldr	r2, [pc, #608]	; (80033d4 <maxim_heart_rate_and_oxygen_saturation+0x288>)
 8003172:	2100      	movs	r1, #0
 8003174:	6813      	ldr	r3, [r2, #0]
 8003176:	3101      	adds	r1, #1
 8003178:	f852 0f04 	ldr.w	r0, [r2, #4]!
 800317c:	4403      	add	r3, r0
 800317e:	6850      	ldr	r0, [r2, #4]
 8003180:	4403      	add	r3, r0
 8003182:	6890      	ldr	r0, [r2, #8]
 8003184:	181b      	adds	r3, r3, r0
 8003186:	bf48      	it	mi
 8003188:	3303      	addmi	r3, #3
 800318a:	f5b1 7ff8 	cmp.w	r1, #496	; 0x1f0
 800318e:	ea4f 03a3 	mov.w	r3, r3, asr #2
 8003192:	f842 3c04 	str.w	r3, [r2, #-4]
 8003196:	d1ed      	bne.n	8003174 <maxim_heart_rate_and_oxygen_saturation+0x28>
 8003198:	4a8f      	ldr	r2, [pc, #572]	; (80033d8 <maxim_heart_rate_and_oxygen_saturation+0x28c>)
 800319a:	2100      	movs	r1, #0
 800319c:	f8df c234 	ldr.w	ip, [pc, #564]	; 80033d4 <maxim_heart_rate_and_oxygen_saturation+0x288>
 80031a0:	f240 18ef 	movw	r8, #495	; 0x1ef
 80031a4:	4696      	mov	lr, r2
 80031a6:	4663      	mov	r3, ip
 80031a8:	f8dc 0004 	ldr.w	r0, [ip, #4]
 80031ac:	3101      	adds	r1, #1
 80031ae:	f10c 0c04 	add.w	ip, ip, #4
 80031b2:	681b      	ldr	r3, [r3, #0]
 80031b4:	4541      	cmp	r1, r8
 80031b6:	eba0 0303 	sub.w	r3, r0, r3
 80031ba:	f84e 3b04 	str.w	r3, [lr], #4
 80031be:	d1f2      	bne.n	80031a6 <maxim_heart_rate_and_oxygen_saturation+0x5a>
 80031c0:	4985      	ldr	r1, [pc, #532]	; (80033d8 <maxim_heart_rate_and_oxygen_saturation+0x28c>)
 80031c2:	2000      	movs	r0, #0
 80031c4:	680b      	ldr	r3, [r1, #0]
 80031c6:	3001      	adds	r0, #1
 80031c8:	f851 cf04 	ldr.w	ip, [r1, #4]!
 80031cc:	f5b0 7ff7 	cmp.w	r0, #494	; 0x1ee
 80031d0:	4463      	add	r3, ip
 80031d2:	eb03 73d3 	add.w	r3, r3, r3, lsr #31
 80031d6:	ea4f 0363 	mov.w	r3, r3, asr #1
 80031da:	f841 3c04 	str.w	r3, [r1, #-4]
 80031de:	d1f1      	bne.n	80031c4 <maxim_heart_rate_and_oxygen_saturation+0x78>
 80031e0:	487d      	ldr	r0, [pc, #500]	; (80033d8 <maxim_heart_rate_and_oxygen_saturation+0x28c>)
 80031e2:	f04f 0c00 	mov.w	ip, #0
 80031e6:	f240 4b7a 	movw	fp, #1146	; 0x47a
 80031ea:	f240 19e9 	movw	r9, #489	; 0x1e9
 80031ee:	f8df 81f4 	ldr.w	r8, [pc, #500]	; 80033e4 <maxim_heart_rate_and_oxygen_saturation+0x298>
 80031f2:	4686      	mov	lr, r0
 80031f4:	2306      	movs	r3, #6
 80031f6:	2100      	movs	r1, #0
 80031f8:	e011      	b.n	800321e <maxim_heart_rate_and_oxygen_saturation+0xd2>
 80031fa:	f856 1022 	ldr.w	r1, [r6, r2, lsl #2]
 80031fe:	3201      	adds	r2, #1
 8003200:	440b      	add	r3, r1
 8003202:	e7ac      	b.n	800315e <maxim_heart_rate_and_oxygen_saturation+0x12>
 8003204:	f856 1022 	ldr.w	r1, [r6, r2, lsl #2]
 8003208:	3201      	adds	r2, #1
 800320a:	1ac9      	subs	r1, r1, r3
 800320c:	f840 1b04 	str.w	r1, [r0], #4
 8003210:	e7ac      	b.n	800316c <maxim_heart_rate_and_oxygen_saturation+0x20>
 8003212:	f85e 7b04 	ldr.w	r7, [lr], #4
 8003216:	f838 ab02 	ldrh.w	sl, [r8], #2
 800321a:	fb07 111a 	mls	r1, r7, sl, r1
 800321e:	3b01      	subs	r3, #1
 8003220:	d1f7      	bne.n	8003212 <maxim_heart_rate_and_oxygen_saturation+0xc6>
 8003222:	f10c 0c01 	add.w	ip, ip, #1
 8003226:	fb91 f1fb 	sdiv	r1, r1, fp
 800322a:	45cc      	cmp	ip, r9
 800322c:	f840 1b04 	str.w	r1, [r0], #4
 8003230:	d1dd      	bne.n	80031ee <maxim_heart_rate_and_oxygen_saturation+0xa2>
 8003232:	4619      	mov	r1, r3
 8003234:	f240 1cef 	movw	ip, #495	; 0x1ef
 8003238:	f852 0b04 	ldr.w	r0, [r2], #4
 800323c:	3301      	adds	r3, #1
 800323e:	2800      	cmp	r0, #0
 8003240:	bfb8      	it	lt
 8003242:	4240      	neglt	r0, r0
 8003244:	4563      	cmp	r3, ip
 8003246:	4401      	add	r1, r0
 8003248:	d1f6      	bne.n	8003238 <maxim_heart_rate_and_oxygen_saturation+0xec>
 800324a:	fbb1 f1f3 	udiv	r1, r1, r3
 800324e:	2208      	movs	r2, #8
 8003250:	2005      	movs	r0, #5
 8003252:	9100      	str	r1, [sp, #0]
 8003254:	a907      	add	r1, sp, #28
 8003256:	e9cd 2001 	strd	r2, r0, [sp, #4]
 800325a:	a82b      	add	r0, sp, #172	; 0xac
 800325c:	4a5e      	ldr	r2, [pc, #376]	; (80033d8 <maxim_heart_rate_and_oxygen_saturation+0x28c>)
 800325e:	f7ff ff64 	bl	800312a <maxim_find_peaks>
 8003262:	9807      	ldr	r0, [sp, #28]
 8003264:	2801      	cmp	r0, #1
 8003266:	dd3b      	ble.n	80032e0 <maxim_heart_rate_and_oxygen_saturation+0x194>
 8003268:	ab2b      	add	r3, sp, #172	; 0xac
 800326a:	2200      	movs	r2, #0
 800326c:	f04f 0c01 	mov.w	ip, #1
 8003270:	4619      	mov	r1, r3
 8003272:	f8d3 e004 	ldr.w	lr, [r3, #4]
 8003276:	f10c 0c01 	add.w	ip, ip, #1
 800327a:	3304      	adds	r3, #4
 800327c:	6809      	ldr	r1, [r1, #0]
 800327e:	4560      	cmp	r0, ip
 8003280:	ebae 0101 	sub.w	r1, lr, r1
 8003284:	440a      	add	r2, r1
 8003286:	d1f3      	bne.n	8003270 <maxim_heart_rate_and_oxygen_saturation+0x124>
 8003288:	1e43      	subs	r3, r0, #1
 800328a:	fb92 f2f3 	sdiv	r2, r2, r3
 800328e:	f241 7370 	movw	r3, #6000	; 0x1770
 8003292:	fb93 f3f2 	sdiv	r3, r3, r2
 8003296:	2201      	movs	r2, #1
 8003298:	9945      	ldr	r1, [sp, #276]	; 0x114
 800329a:	f10d 0c34 	add.w	ip, sp, #52	; 0x34
 800329e:	f10d 0eac 	add.w	lr, sp, #172	; 0xac
 80032a2:	600b      	str	r3, [r1, #0]
 80032a4:	4661      	mov	r1, ip
 80032a6:	9b46      	ldr	r3, [sp, #280]	; 0x118
 80032a8:	701a      	strb	r2, [r3, #0]
 80032aa:	2300      	movs	r3, #0
 80032ac:	4298      	cmp	r0, r3
 80032ae:	dc1a      	bgt.n	80032e6 <maxim_heart_rate_and_oxygen_saturation+0x19a>
 80032b0:	494a      	ldr	r1, [pc, #296]	; (80033dc <maxim_heart_rate_and_oxygen_saturation+0x290>)
 80032b2:	2200      	movs	r2, #0
 80032b4:	4b47      	ldr	r3, [pc, #284]	; (80033d4 <maxim_heart_rate_and_oxygen_saturation+0x288>)
 80032b6:	4689      	mov	r9, r1
 80032b8:	469e      	mov	lr, r3
 80032ba:	42aa      	cmp	r2, r5
 80032bc:	db1a      	blt.n	80032f4 <maxim_heart_rate_and_oxygen_saturation+0x1a8>
 80032be:	2200      	movs	r2, #0
 80032c0:	f10d 0970 	add.w	r9, sp, #112	; 0x70
 80032c4:	4616      	mov	r6, r2
 80032c6:	42b0      	cmp	r0, r6
 80032c8:	dc1f      	bgt.n	800330a <maxim_heart_rate_and_oxygen_saturation+0x1be>
 80032ca:	2a01      	cmp	r2, #1
 80032cc:	dc38      	bgt.n	8003340 <maxim_heart_rate_and_oxygen_saturation+0x1f4>
 80032ce:	4a44      	ldr	r2, [pc, #272]	; (80033e0 <maxim_heart_rate_and_oxygen_saturation+0x294>)
 80032d0:	2300      	movs	r3, #0
 80032d2:	9905      	ldr	r1, [sp, #20]
 80032d4:	600a      	str	r2, [r1, #0]
 80032d6:	9a44      	ldr	r2, [sp, #272]	; 0x110
 80032d8:	7013      	strb	r3, [r2, #0]
 80032da:	b03b      	add	sp, #236	; 0xec
 80032dc:	e8bd 8ff0 	ldmia.w	sp!, {r4, r5, r6, r7, r8, r9, sl, fp, pc}
 80032e0:	4b3f      	ldr	r3, [pc, #252]	; (80033e0 <maxim_heart_rate_and_oxygen_saturation+0x294>)
 80032e2:	2200      	movs	r2, #0
 80032e4:	e7d8      	b.n	8003298 <maxim_heart_rate_and_oxygen_saturation+0x14c>
 80032e6:	f85e 2b04 	ldr.w	r2, [lr], #4
 80032ea:	3301      	adds	r3, #1
 80032ec:	3202      	adds	r2, #2
 80032ee:	f841 2b04 	str.w	r2, [r1], #4
 80032f2:	e7db      	b.n	80032ac <maxim_heart_rate_and_oxygen_saturation+0x160>
 80032f4:	f856 7022 	ldr.w	r7, [r6, r2, lsl #2]
 80032f8:	f843 7b04 	str.w	r7, [r3], #4
 80032fc:	9f04      	ldr	r7, [sp, #16]
 80032fe:	f857 7022 	ldr.w	r7, [r7, r2, lsl #2]
 8003302:	3201      	adds	r2, #1
 8003304:	f849 7b04 	str.w	r7, [r9], #4
 8003308:	e7d7      	b.n	80032ba <maxim_heart_rate_and_oxygen_saturation+0x16e>
 800330a:	f85c 3b04 	ldr.w	r3, [ip], #4
 800330e:	1f9d      	subs	r5, r3, #6
 8003310:	f5b5 7ff2 	cmp.w	r5, #484	; 0x1e4
 8003314:	d208      	bcs.n	8003328 <maxim_heart_rate_and_oxygen_saturation+0x1dc>
 8003316:	1f5d      	subs	r5, r3, #5
 8003318:	f04f 7880 	mov.w	r8, #16777216	; 0x1000000
 800331c:	3305      	adds	r3, #5
 800331e:	2701      	movs	r7, #1
 8003320:	429d      	cmp	r5, r3
 8003322:	d103      	bne.n	800332c <maxim_heart_rate_and_oxygen_saturation+0x1e0>
 8003324:	b907      	cbnz	r7, 8003328 <maxim_heart_rate_and_oxygen_saturation+0x1dc>
 8003326:	3201      	adds	r2, #1
 8003328:	3601      	adds	r6, #1
 800332a:	e7cc      	b.n	80032c6 <maxim_heart_rate_and_oxygen_saturation+0x17a>
 800332c:	f85e a025 	ldr.w	sl, [lr, r5, lsl #2]
 8003330:	45c2      	cmp	sl, r8
 8003332:	bfbe      	ittt	lt
 8003334:	f849 5026 	strlt.w	r5, [r9, r6, lsl #2]
 8003338:	46d0      	movlt	r8, sl
 800333a:	2700      	movlt	r7, #0
 800333c:	3501      	adds	r5, #1
 800333e:	e7ef      	b.n	8003320 <maxim_heart_rate_and_oxygen_saturation+0x1d4>
 8003340:	2000      	movs	r0, #0
 8003342:	6823      	ldr	r3, [r4, #0]
 8003344:	3001      	adds	r0, #1
 8003346:	f854 5f04 	ldr.w	r5, [r4, #4]!
 800334a:	442b      	add	r3, r5
 800334c:	6865      	ldr	r5, [r4, #4]
 800334e:	442b      	add	r3, r5
 8003350:	68a5      	ldr	r5, [r4, #8]
 8003352:	195b      	adds	r3, r3, r5
 8003354:	bf48      	it	mi
 8003356:	3303      	addmi	r3, #3
 8003358:	109b      	asrs	r3, r3, #2
 800335a:	f844 3c04 	str.w	r3, [r4, #-4]
 800335e:	680b      	ldr	r3, [r1, #0]
 8003360:	f851 5f04 	ldr.w	r5, [r1, #4]!
 8003364:	442b      	add	r3, r5
 8003366:	684d      	ldr	r5, [r1, #4]
 8003368:	442b      	add	r3, r5
 800336a:	688d      	ldr	r5, [r1, #8]
 800336c:	195b      	adds	r3, r3, r5
 800336e:	bf48      	it	mi
 8003370:	3303      	addmi	r3, #3
 8003372:	f5b0 7ff8 	cmp.w	r0, #496	; 0x1f0
 8003376:	ea4f 03a3 	mov.w	r3, r3, asr #2
 800337a:	f841 3c04 	str.w	r3, [r1, #-4]
 800337e:	d1e0      	bne.n	8003342 <maxim_heart_rate_and_oxygen_saturation+0x1f6>
 8003380:	ae1c      	add	r6, sp, #112	; 0x70
 8003382:	2300      	movs	r3, #0
 8003384:	4631      	mov	r1, r6
 8003386:	930c      	str	r3, [sp, #48]	; 0x30
 8003388:	e9cd 3308 	strd	r3, r3, [sp, #32]
 800338c:	e9cd 330a 	strd	r3, r3, [sp, #40]	; 0x28
 8003390:	f851 0b04 	ldr.w	r0, [r1], #4
 8003394:	f5b0 7ffa 	cmp.w	r0, #500	; 0x1f4
 8003398:	dc99      	bgt.n	80032ce <maxim_heart_rate_and_oxygen_saturation+0x182>
 800339a:	3301      	adds	r3, #1
 800339c:	429a      	cmp	r2, r3
 800339e:	d1f7      	bne.n	8003390 <maxim_heart_rate_and_oxygen_saturation+0x244>
 80033a0:	2400      	movs	r4, #0
 80033a2:	1e53      	subs	r3, r2, #1
 80033a4:	4f0b      	ldr	r7, [pc, #44]	; (80033d4 <maxim_heart_rate_and_oxygen_saturation+0x288>)
 80033a6:	4625      	mov	r5, r4
 80033a8:	4621      	mov	r1, r4
 80033aa:	46a3      	mov	fp, r4
 80033ac:	f8df c02c 	ldr.w	ip, [pc, #44]	; 80033dc <maxim_heart_rate_and_oxygen_saturation+0x290>
 80033b0:	9304      	str	r3, [sp, #16]
 80033b2:	f8d6 8004 	ldr.w	r8, [r6, #4]
 80033b6:	f10b 0b01 	add.w	fp, fp, #1
 80033ba:	f856 0b04 	ldr.w	r0, [r6], #4
 80033be:	eba8 0900 	sub.w	r9, r8, r0
 80033c2:	f1b9 0f0a 	cmp.w	r9, #10
 80033c6:	dd53      	ble.n	8003470 <maxim_heart_rate_and_oxygen_saturation+0x324>
 80033c8:	f04f 4e7f 	mov.w	lr, #4278190080	; 0xff000000
 80033cc:	4603      	mov	r3, r0
 80033ce:	46f2      	mov	sl, lr
 80033d0:	e018      	b.n	8003404 <maxim_heart_rate_and_oxygen_saturation+0x2b8>
 80033d2:	bf00      	nop
 80033d4:	20000aa8 	.word	0x20000aa8
 80033d8:	200002e8 	.word	0x200002e8
 80033dc:	20001278 	.word	0x20001278
 80033e0:	fffffc19 	.word	0xfffffc19
 80033e4:	08005734 	.word	0x08005734
 80033e8:	f857 2023 	ldr.w	r2, [r7, r3, lsl #2]
 80033ec:	4572      	cmp	r2, lr
 80033ee:	bfc8      	it	gt
 80033f0:	4696      	movgt	lr, r2
 80033f2:	f85c 2023 	ldr.w	r2, [ip, r3, lsl #2]
 80033f6:	bfc8      	it	gt
 80033f8:	461c      	movgt	r4, r3
 80033fa:	4552      	cmp	r2, sl
 80033fc:	bfc4      	itt	gt
 80033fe:	461d      	movgt	r5, r3
 8003400:	4692      	movgt	sl, r2
 8003402:	3301      	adds	r3, #1
 8003404:	4598      	cmp	r8, r3
 8003406:	dcef      	bgt.n	80033e8 <maxim_heart_rate_and_oxygen_saturation+0x29c>
 8003408:	f857 2020 	ldr.w	r2, [r7, r0, lsl #2]
 800340c:	f857 3028 	ldr.w	r3, [r7, r8, lsl #2]
 8003410:	1a9b      	subs	r3, r3, r2
 8003412:	1a22      	subs	r2, r4, r0
 8003414:	4353      	muls	r3, r2
 8003416:	f857 2020 	ldr.w	r2, [r7, r0, lsl #2]
 800341a:	fb93 f3f9 	sdiv	r3, r3, r9
 800341e:	4413      	add	r3, r2
 8003420:	f857 2025 	ldr.w	r2, [r7, r5, lsl #2]
 8003424:	1ad2      	subs	r2, r2, r3
 8003426:	fb0a f202 	mul.w	r2, sl, r2
 800342a:	11d2      	asrs	r2, r2, #7
 800342c:	2a00      	cmp	r2, #0
 800342e:	dd1f      	ble.n	8003470 <maxim_heart_rate_and_oxygen_saturation+0x324>
 8003430:	2904      	cmp	r1, #4
 8003432:	dc1d      	bgt.n	8003470 <maxim_heart_rate_and_oxygen_saturation+0x324>
 8003434:	f85c 3020 	ldr.w	r3, [ip, r0, lsl #2]
 8003438:	1a28      	subs	r0, r5, r0
 800343a:	f85c 8028 	ldr.w	r8, [ip, r8, lsl #2]
 800343e:	eba8 0803 	sub.w	r8, r8, r3
 8003442:	fb00 f808 	mul.w	r8, r0, r8
 8003446:	fb98 f8f9 	sdiv	r8, r8, r9
 800344a:	4498      	add	r8, r3
 800344c:	f85c 3025 	ldr.w	r3, [ip, r5, lsl #2]
 8003450:	eba3 0308 	sub.w	r3, r3, r8
 8003454:	fb0e f303 	mul.w	r3, lr, r3
 8003458:	11db      	asrs	r3, r3, #7
 800345a:	d009      	beq.n	8003470 <maxim_heart_rate_and_oxygen_saturation+0x324>
 800345c:	a83a      	add	r0, sp, #232	; 0xe8
 800345e:	eb00 0e81 	add.w	lr, r0, r1, lsl #2
 8003462:	2014      	movs	r0, #20
 8003464:	3101      	adds	r1, #1
 8003466:	4343      	muls	r3, r0
 8003468:	fb93 f3f2 	sdiv	r3, r3, r2
 800346c:	f84e 3cc8 	str.w	r3, [lr, #-200]
 8003470:	9b04      	ldr	r3, [sp, #16]
 8003472:	459b      	cmp	fp, r3
 8003474:	db9d      	blt.n	80033b2 <maxim_heart_rate_and_oxygen_saturation+0x266>
 8003476:	a808      	add	r0, sp, #32
 8003478:	f7ff fdec 	bl	8003054 <maxim_sort_ascend>
 800347c:	2903      	cmp	r1, #3
 800347e:	ea4f 0261 	mov.w	r2, r1, asr #1
 8003482:	ea4f 0382 	mov.w	r3, r2, lsl #2
 8003486:	dd15      	ble.n	80034b4 <maxim_heart_rate_and_oxygen_saturation+0x368>
 8003488:	33e8      	adds	r3, #232	; 0xe8
 800348a:	a93a      	add	r1, sp, #232	; 0xe8
 800348c:	eb01 0182 	add.w	r1, r1, r2, lsl #2
 8003490:	eb0d 0203 	add.w	r2, sp, r3
 8003494:	f851 3ccc 	ldr.w	r3, [r1, #-204]
 8003498:	f852 2cc8 	ldr.w	r2, [r2, #-200]
 800349c:	4413      	add	r3, r2
 800349e:	eb03 73d3 	add.w	r3, r3, r3, lsr #31
 80034a2:	105b      	asrs	r3, r3, #1
 80034a4:	1eda      	subs	r2, r3, #3
 80034a6:	2ab4      	cmp	r2, #180	; 0xb4
 80034a8:	f63f af11 	bhi.w	80032ce <maxim_heart_rate_and_oxygen_saturation+0x182>
 80034ac:	4a04      	ldr	r2, [pc, #16]	; (80034c0 <maxim_heart_rate_and_oxygen_saturation+0x374>)
 80034ae:	5cd2      	ldrb	r2, [r2, r3]
 80034b0:	2301      	movs	r3, #1
 80034b2:	e70e      	b.n	80032d2 <maxim_heart_rate_and_oxygen_saturation+0x186>
 80034b4:	33e8      	adds	r3, #232	; 0xe8
 80034b6:	446b      	add	r3, sp
 80034b8:	f853 3cc8 	ldr.w	r3, [r3, #-200]
 80034bc:	e7f2      	b.n	80034a4 <maxim_heart_rate_and_oxygen_saturation+0x358>
 80034be:	bf00      	nop
 80034c0:	08005772 	.word	0x08005772

080034c4 <Heart_Sensor_Init>:
 80034c4:	b508      	push	{r3, lr}
 80034c6:	f000 f9d9 	bl	800387c <max30102_init>
 80034ca:	1e83      	subs	r3, r0, #2
 80034cc:	4258      	negs	r0, r3
 80034ce:	4158      	adcs	r0, r3
 80034d0:	bd08      	pop	{r3, pc}
	...

080034d4 <Get_HeartRate_and_Oxygen>:
 80034d4:	f5b0 7ffa 	cmp.w	r0, #500	; 0x1f4
 80034d8:	e92d 47f0 	stmdb	sp!, {r4, r5, r6, r7, r8, r9, sl, lr}
 80034dc:	4604      	mov	r4, r0
 80034de:	f8df a130 	ldr.w	sl, [pc, #304]	; 8003610 <Get_HeartRate_and_Oxygen+0x13c>
 80034e2:	bf34      	ite	cc
 80034e4:	4604      	movcc	r4, r0
 80034e6:	2400      	movcs	r4, #0
 80034e8:	b086      	sub	sp, #24
 80034ea:	2600      	movs	r6, #0
 80034ec:	46a1      	mov	r9, r4
 80034ee:	46d0      	mov	r8, sl
 80034f0:	4f43      	ldr	r7, [pc, #268]	; (8003600 <Get_HeartRate_and_Oxygen+0x12c>)
 80034f2:	4d44      	ldr	r5, [pc, #272]	; (8003604 <Get_HeartRate_and_Oxygen+0x130>)
 80034f4:	2140      	movs	r1, #64	; 0x40
 80034f6:	4638      	mov	r0, r7
 80034f8:	f7fd ff8a 	bl	8001410 <HAL_GPIO_ReadPin>
 80034fc:	2801      	cmp	r0, #1
 80034fe:	d06f      	beq.n	80035e0 <Get_HeartRate_and_Oxygen+0x10c>
 8003500:	2007      	movs	r0, #7
 8003502:	f109 0901 	add.w	r9, r9, #1
 8003506:	f000 f965 	bl	80037d4 <max30102_FIFO_ReadBytes>
 800350a:	7bab      	ldrb	r3, [r5, #14]
 800350c:	f8b5 200f 	ldrh.w	r2, [r5, #15]
 8003510:	fa1f f989 	uxth.w	r9, r9
 8003514:	041b      	lsls	r3, r3, #16
 8003516:	ba52      	rev16	r2, r2
 8003518:	f5b9 7ffa 	cmp.w	r9, #500	; 0x1f4
 800351c:	f403 3340 	and.w	r3, r3, #196608	; 0x30000
 8003520:	b292      	uxth	r2, r2
 8003522:	ea43 0302 	orr.w	r3, r3, r2
 8003526:	8a6a      	ldrh	r2, [r5, #18]
 8003528:	f8ca 37d0 	str.w	r3, [sl, #2000]	; 0x7d0
 800352c:	ba52      	rev16	r2, r2
 800352e:	7c6b      	ldrb	r3, [r5, #17]
 8003530:	b292      	uxth	r2, r2
 8003532:	ea4f 4303 	mov.w	r3, r3, lsl #16
 8003536:	f403 3340 	and.w	r3, r3, #196608	; 0x30000
 800353a:	ea43 0302 	orr.w	r3, r3, r2
 800353e:	f84a 3b04 	str.w	r3, [sl], #4
 8003542:	d1d7      	bne.n	80034f4 <Get_HeartRate_and_Oxygen+0x20>
 8003544:	b35c      	cbz	r4, 800359e <Get_HeartRate_and_Oxygen+0xca>
 8003546:	f5c4 74fa 	rsb	r4, r4, #500	; 0x1f4
 800354a:	4f2d      	ldr	r7, [pc, #180]	; (8003600 <Get_HeartRate_and_Oxygen+0x12c>)
 800354c:	b2a4      	uxth	r4, r4
 800354e:	eb08 0884 	add.w	r8, r8, r4, lsl #2
 8003552:	2140      	movs	r1, #64	; 0x40
 8003554:	4638      	mov	r0, r7
 8003556:	f7fd ff5b 	bl	8001410 <HAL_GPIO_ReadPin>
 800355a:	2801      	cmp	r0, #1
 800355c:	d04a      	beq.n	80035f4 <Get_HeartRate_and_Oxygen+0x120>
 800355e:	2007      	movs	r0, #7
 8003560:	3401      	adds	r4, #1
 8003562:	f000 f937 	bl	80037d4 <max30102_FIFO_ReadBytes>
 8003566:	7bab      	ldrb	r3, [r5, #14]
 8003568:	f8b5 200f 	ldrh.w	r2, [r5, #15]
 800356c:	b2a4      	uxth	r4, r4
 800356e:	041b      	lsls	r3, r3, #16
 8003570:	ba52      	rev16	r2, r2
 8003572:	f5b4 7ffa 	cmp.w	r4, #500	; 0x1f4
 8003576:	f403 3340 	and.w	r3, r3, #196608	; 0x30000
 800357a:	b292      	uxth	r2, r2
 800357c:	ea43 0302 	orr.w	r3, r3, r2
 8003580:	8a6a      	ldrh	r2, [r5, #18]
 8003582:	f8c8 37d0 	str.w	r3, [r8, #2000]	; 0x7d0
 8003586:	ba52      	rev16	r2, r2
 8003588:	7c6b      	ldrb	r3, [r5, #17]
 800358a:	b292      	uxth	r2, r2
 800358c:	ea4f 4303 	mov.w	r3, r3, lsl #16
 8003590:	f403 3340 	and.w	r3, r3, #196608	; 0x30000
 8003594:	ea43 0302 	orr.w	r3, r3, r2
 8003598:	f848 3b04 	str.w	r3, [r8], #4
 800359c:	d1d9      	bne.n	8003552 <Get_HeartRate_and_Oxygen+0x7e>
 800359e:	f10d 0317 	add.w	r3, sp, #23
 80035a2:	f10d 0216 	add.w	r2, sp, #22
 80035a6:	f44f 71fa 	mov.w	r1, #500	; 0x1f4
 80035aa:	9302      	str	r3, [sp, #8]
 80035ac:	9200      	str	r2, [sp, #0]
 80035ae:	4b16      	ldr	r3, [pc, #88]	; (8003608 <Get_HeartRate_and_Oxygen+0x134>)
 80035b0:	4a16      	ldr	r2, [pc, #88]	; (800360c <Get_HeartRate_and_Oxygen+0x138>)
 80035b2:	9301      	str	r3, [sp, #4]
 80035b4:	3304      	adds	r3, #4
 80035b6:	f5a2 60fa 	sub.w	r0, r2, #2000	; 0x7d0
 80035ba:	f7ff fdc7 	bl	800314c <maxim_heart_rate_and_oxygen_saturation>
 80035be:	f99d 3017 	ldrsb.w	r3, [sp, #23]
 80035c2:	b18b      	cbz	r3, 80035e8 <Get_HeartRate_and_Oxygen+0x114>
 80035c4:	f99d 3016 	ldrsb.w	r3, [sp, #22]
 80035c8:	b173      	cbz	r3, 80035e8 <Get_HeartRate_and_Oxygen+0x114>
 80035ca:	f8d5 3006 	ldr.w	r3, [r5, #6]
 80035ce:	2b77      	cmp	r3, #119	; 0x77
 80035d0:	dc0a      	bgt.n	80035e8 <Get_HeartRate_and_Oxygen+0x114>
 80035d2:	f8d5 000a 	ldr.w	r0, [r5, #10]
 80035d6:	2864      	cmp	r0, #100	; 0x64
 80035d8:	bfd4      	ite	le
 80035da:	2000      	movle	r0, #0
 80035dc:	2001      	movgt	r0, #1
 80035de:	e004      	b.n	80035ea <Get_HeartRate_and_Oxygen+0x116>
 80035e0:	2e00      	cmp	r6, #0
 80035e2:	f106 0301 	add.w	r3, r6, #1
 80035e6:	da03      	bge.n	80035f0 <Get_HeartRate_and_Oxygen+0x11c>
 80035e8:	2001      	movs	r0, #1
 80035ea:	b006      	add	sp, #24
 80035ec:	e8bd 87f0 	ldmia.w	sp!, {r4, r5, r6, r7, r8, r9, sl, pc}
 80035f0:	461e      	mov	r6, r3
 80035f2:	e77f      	b.n	80034f4 <Get_HeartRate_and_Oxygen+0x20>
 80035f4:	2e00      	cmp	r6, #0
 80035f6:	f106 0301 	add.w	r3, r6, #1
 80035fa:	dbf5      	blt.n	80035e8 <Get_HeartRate_and_Oxygen+0x114>
 80035fc:	461e      	mov	r6, r3
 80035fe:	e7a8      	b.n	8003552 <Get_HeartRate_and_Oxygen+0x7e>
 8003600:	40020400 	.word	0x40020400
 8003604:	20000028 	.word	0x20000028
 8003608:	2000002e 	.word	0x2000002e
 800360c:	20002218 	.word	0x20002218
 8003610:	20001a48 	.word	0x20001a48

08003614 <pfv_I2C_Config>:
 8003614:	b570      	push	{r4, r5, r6, lr}
 8003616:	460c      	mov	r4, r1
 8003618:	b088      	sub	sp, #32
 800361a:	4616      	mov	r6, r2
 800361c:	2800      	cmp	r0, #0
 800361e:	d149      	bne.n	80036b4 <pfv_I2C_Config+0xa0>
 8003620:	4b29      	ldr	r3, [pc, #164]	; (80036c8 <pfv_I2C_Config+0xb4>)
 8003622:	f100 4080 	add.w	r0, r0, #1073741824	; 0x40000000
 8003626:	4d29      	ldr	r5, [pc, #164]	; (80036cc <pfv_I2C_Config+0xb8>)
 8003628:	a903      	add	r1, sp, #12
 800362a:	6b1a      	ldr	r2, [r3, #48]	; 0x30
 800362c:	f500 3001 	add.w	r0, r0, #132096	; 0x20400
 8003630:	f042 0202 	orr.w	r2, r2, #2
 8003634:	631a      	str	r2, [r3, #48]	; 0x30
 8003636:	6b1a      	ldr	r2, [r3, #48]	; 0x30
 8003638:	f002 0202 	and.w	r2, r2, #2
 800363c:	9201      	str	r2, [sp, #4]
 800363e:	9a01      	ldr	r2, [sp, #4]
 8003640:	6c1a      	ldr	r2, [r3, #64]	; 0x40
 8003642:	f442 1200 	orr.w	r2, r2, #2097152	; 0x200000
 8003646:	641a      	str	r2, [r3, #64]	; 0x40
 8003648:	6c1b      	ldr	r3, [r3, #64]	; 0x40
 800364a:	68aa      	ldr	r2, [r5, #8]
 800364c:	f403 1300 	and.w	r3, r3, #2097152	; 0x200000
 8003650:	9302      	str	r3, [sp, #8]
 8003652:	9b02      	ldr	r3, [sp, #8]
 8003654:	696b      	ldr	r3, [r5, #20]
 8003656:	4313      	orrs	r3, r2
 8003658:	2212      	movs	r2, #18
 800365a:	9303      	str	r3, [sp, #12]
 800365c:	2301      	movs	r3, #1
 800365e:	e9cd 2304 	strd	r2, r3, [sp, #16]
 8003662:	2303      	movs	r3, #3
 8003664:	9306      	str	r3, [sp, #24]
 8003666:	69ab      	ldr	r3, [r5, #24]
 8003668:	9307      	str	r3, [sp, #28]
 800366a:	f7fd fdef 	bl	800124c <HAL_GPIO_Init>
 800366e:	682b      	ldr	r3, [r5, #0]
 8003670:	4a17      	ldr	r2, [pc, #92]	; (80036d0 <pfv_I2C_Config+0xbc>)
 8003672:	601a      	str	r2, [r3, #0]
 8003674:	b926      	cbnz	r6, 8003680 <pfv_I2C_Config+0x6c>
 8003676:	f1a2 52fe 	sub.w	r2, r2, #532676608	; 0x1fc00000
 800367a:	f6a2 4298 	subw	r2, r2, #3224	; 0xc98
 800367e:	605a      	str	r2, [r3, #4]
 8003680:	b93c      	cbnz	r4, 8003692 <pfv_I2C_Config+0x7e>
 8003682:	2201      	movs	r2, #1
 8003684:	609c      	str	r4, [r3, #8]
 8003686:	e9c3 2403 	strd	r2, r4, [r3, #12]
 800368a:	e9c3 4405 	strd	r4, r4, [r3, #20]
 800368e:	e9c3 4407 	strd	r4, r4, [r3, #28]
 8003692:	4810      	ldr	r0, [pc, #64]	; (80036d4 <pfv_I2C_Config+0xc0>)
 8003694:	f7fe f813 	bl	80016be <HAL_I2C_Init>
 8003698:	4601      	mov	r1, r0
 800369a:	b940      	cbnz	r0, 80036ae <pfv_I2C_Config+0x9a>
 800369c:	480d      	ldr	r0, [pc, #52]	; (80036d4 <pfv_I2C_Config+0xc0>)
 800369e:	f7fe f9d1 	bl	8001a44 <HAL_I2CEx_ConfigAnalogFilter>
 80036a2:	4601      	mov	r1, r0
 80036a4:	b918      	cbnz	r0, 80036ae <pfv_I2C_Config+0x9a>
 80036a6:	480b      	ldr	r0, [pc, #44]	; (80036d4 <pfv_I2C_Config+0xc0>)
 80036a8:	f7fe f9f2 	bl	8001a90 <HAL_I2CEx_ConfigDigitalFilter>
 80036ac:	b100      	cbz	r0, 80036b0 <pfv_I2C_Config+0x9c>
 80036ae:	2002      	movs	r0, #2
 80036b0:	b008      	add	sp, #32
 80036b2:	bd70      	pop	{r4, r5, r6, pc}
 80036b4:	2801      	cmp	r0, #1
 80036b6:	d004      	beq.n	80036c2 <pfv_I2C_Config+0xae>
 80036b8:	3802      	subs	r0, #2
 80036ba:	bf18      	it	ne
 80036bc:	2001      	movne	r0, #1
 80036be:	0040      	lsls	r0, r0, #1
 80036c0:	e7f6      	b.n	80036b0 <pfv_I2C_Config+0x9c>
 80036c2:	2000      	movs	r0, #0
 80036c4:	e7f4      	b.n	80036b0 <pfv_I2C_Config+0x9c>
 80036c6:	bf00      	nop
 80036c8:	40023800 	.word	0x40023800
 80036cc:	2000000c 	.word	0x2000000c
 80036d0:	40005400 	.word	0x40005400
 80036d4:	200000d4 	.word	0x200000d4

080036d8 <pfc_I2C_WriteByte>:
 80036d8:	b57f      	push	{r0, r1, r2, r3, r4, r5, r6, lr}
 80036da:	f88d 3017 	strb.w	r3, [sp, #23]
 80036de:	b990      	cbnz	r0, 8003706 <pfc_I2C_WriteByte+0x2e>
 80036e0:	2301      	movs	r3, #1
 80036e2:	f44f 707a 	mov.w	r0, #1000	; 0x3e8
 80036e6:	e9cd 3001 	strd	r3, r0, [sp, #4]
 80036ea:	f10d 0017 	add.w	r0, sp, #23
 80036ee:	9000      	str	r0, [sp, #0]
 80036f0:	4808      	ldr	r0, [pc, #32]	; (8003714 <pfc_I2C_WriteByte+0x3c>)
 80036f2:	6800      	ldr	r0, [r0, #0]
 80036f4:	f7fe f834 	bl	8001760 <HAL_I2C_Mem_Write>
 80036f8:	3800      	subs	r0, #0
 80036fa:	bf18      	it	ne
 80036fc:	2001      	movne	r0, #1
 80036fe:	0040      	lsls	r0, r0, #1
 8003700:	b007      	add	sp, #28
 8003702:	f85d fb04 	ldr.w	pc, [sp], #4
 8003706:	2801      	cmp	r0, #1
 8003708:	d001      	beq.n	800370e <pfc_I2C_WriteByte+0x36>
 800370a:	3802      	subs	r0, #2
 800370c:	e7f5      	b.n	80036fa <pfc_I2C_WriteByte+0x22>
 800370e:	2000      	movs	r0, #0
 8003710:	e7f6      	b.n	8003700 <pfc_I2C_WriteByte+0x28>
 8003712:	bf00      	nop
 8003714:	2000000c 	.word	0x2000000c

08003718 <pfv_I2C_ReadByte>:
 8003718:	b51f      	push	{r0, r1, r2, r3, r4, lr}
 800371a:	b990      	cbnz	r0, 8003742 <pfv_I2C_ReadByte+0x2a>
 800371c:	2001      	movs	r0, #1
 800371e:	f44f 7c7a 	mov.w	ip, #1000	; 0x3e8
 8003722:	9300      	str	r3, [sp, #0]
 8003724:	4301      	orrs	r1, r0
 8003726:	4603      	mov	r3, r0
 8003728:	e9cd 0c01 	strd	r0, ip, [sp, #4]
 800372c:	4808      	ldr	r0, [pc, #32]	; (8003750 <pfv_I2C_ReadByte+0x38>)
 800372e:	6800      	ldr	r0, [r0, #0]
 8003730:	f7fe f8cc 	bl	80018cc <HAL_I2C_Mem_Read>
 8003734:	3800      	subs	r0, #0
 8003736:	bf18      	it	ne
 8003738:	2001      	movne	r0, #1
 800373a:	0040      	lsls	r0, r0, #1
 800373c:	b005      	add	sp, #20
 800373e:	f85d fb04 	ldr.w	pc, [sp], #4
 8003742:	2801      	cmp	r0, #1
 8003744:	d001      	beq.n	800374a <pfv_I2C_ReadByte+0x32>
 8003746:	3802      	subs	r0, #2
 8003748:	e7f5      	b.n	8003736 <pfv_I2C_ReadByte+0x1e>
 800374a:	2000      	movs	r0, #0
 800374c:	e7f6      	b.n	800373c <pfv_I2C_ReadByte+0x24>
 800374e:	bf00      	nop
 8003750:	2000000c 	.word	0x2000000c

08003754 <pfv_I2C_ReadMultByte>:
 8003754:	b51f      	push	{r0, r1, r2, r3, r4, lr}
 8003756:	b998      	cbnz	r0, 8003780 <pfv_I2C_ReadMultByte+0x2c>
 8003758:	f44f 707a 	mov.w	r0, #1000	; 0x3e8
 800375c:	9002      	str	r0, [sp, #8]
 800375e:	f89d 0018 	ldrb.w	r0, [sp, #24]
 8003762:	e9cd 3000 	strd	r3, r0, [sp]
 8003766:	2301      	movs	r3, #1
 8003768:	4808      	ldr	r0, [pc, #32]	; (800378c <pfv_I2C_ReadMultByte+0x38>)
 800376a:	4319      	orrs	r1, r3
 800376c:	6800      	ldr	r0, [r0, #0]
 800376e:	f7fe f8ad 	bl	80018cc <HAL_I2C_Mem_Read>
 8003772:	3800      	subs	r0, #0
 8003774:	bf18      	it	ne
 8003776:	2001      	movne	r0, #1
 8003778:	0040      	lsls	r0, r0, #1
 800377a:	b005      	add	sp, #20
 800377c:	f85d fb04 	ldr.w	pc, [sp], #4
 8003780:	2801      	cmp	r0, #1
 8003782:	d001      	beq.n	8003788 <pfv_I2C_ReadMultByte+0x34>
 8003784:	3802      	subs	r0, #2
 8003786:	e7f5      	b.n	8003774 <pfv_I2C_ReadMultByte+0x20>
 8003788:	2000      	movs	r0, #0
 800378a:	e7f6      	b.n	800377a <pfv_I2C_ReadMultByte+0x26>
 800378c:	2000000c 	.word	0x2000000c

08003790 <max30102_Bus_Write>:
 8003790:	b510      	push	{r4, lr}
 8003792:	4c06      	ldr	r4, [pc, #24]	; (80037ac <max30102_Bus_Write+0x1c>)
 8003794:	4602      	mov	r2, r0
 8003796:	460b      	mov	r3, r1
 8003798:	7860      	ldrb	r0, [r4, #1]
 800379a:	7821      	ldrb	r1, [r4, #0]
 800379c:	f7ff ff9c 	bl	80036d8 <pfc_I2C_WriteByte>
 80037a0:	3800      	subs	r0, #0
 80037a2:	bf18      	it	ne
 80037a4:	2001      	movne	r0, #1
 80037a6:	0040      	lsls	r0, r0, #1
 80037a8:	bd10      	pop	{r4, pc}
 80037aa:	bf00      	nop
 80037ac:	20000028 	.word	0x20000028

080037b0 <max30102_Bus_Read>:
 80037b0:	b513      	push	{r0, r1, r4, lr}
 80037b2:	4c07      	ldr	r4, [pc, #28]	; (80037d0 <max30102_Bus_Read+0x20>)
 80037b4:	4602      	mov	r2, r0
 80037b6:	f10d 0307 	add.w	r3, sp, #7
 80037ba:	7821      	ldrb	r1, [r4, #0]
 80037bc:	7860      	ldrb	r0, [r4, #1]
 80037be:	f7ff ffab 	bl	8003718 <pfv_I2C_ReadByte>
 80037c2:	2802      	cmp	r0, #2
 80037c4:	bf14      	ite	ne
 80037c6:	f89d 0007 	ldrbne.w	r0, [sp, #7]
 80037ca:	2000      	moveq	r0, #0
 80037cc:	b002      	add	sp, #8
 80037ce:	bd10      	pop	{r4, pc}
 80037d0:	20000028 	.word	0x20000028

080037d4 <max30102_FIFO_ReadBytes>:
 80037d4:	b537      	push	{r0, r1, r2, r4, r5, lr}
 80037d6:	4605      	mov	r5, r0
 80037d8:	4c0b      	ldr	r4, [pc, #44]	; (8003808 <max30102_FIFO_ReadBytes+0x34>)
 80037da:	2000      	movs	r0, #0
 80037dc:	f7ff ffe8 	bl	80037b0 <max30102_Bus_Read>
 80037e0:	0643      	lsls	r3, r0, #25
 80037e2:	d50d      	bpl.n	8003800 <max30102_FIFO_ReadBytes+0x2c>
 80037e4:	2001      	movs	r0, #1
 80037e6:	4c09      	ldr	r4, [pc, #36]	; (800380c <max30102_FIFO_ReadBytes+0x38>)
 80037e8:	f7ff ffe2 	bl	80037b0 <max30102_Bus_Read>
 80037ec:	2306      	movs	r3, #6
 80037ee:	462a      	mov	r2, r5
 80037f0:	9300      	str	r3, [sp, #0]
 80037f2:	f104 030e 	add.w	r3, r4, #14
 80037f6:	7821      	ldrb	r1, [r4, #0]
 80037f8:	7860      	ldrb	r0, [r4, #1]
 80037fa:	f7ff ffab 	bl	8003754 <pfv_I2C_ReadMultByte>
 80037fe:	e001      	b.n	8003804 <max30102_FIFO_ReadBytes+0x30>
 8003800:	3c01      	subs	r4, #1
 8003802:	d1ea      	bne.n	80037da <max30102_FIFO_ReadBytes+0x6>
 8003804:	b003      	add	sp, #12
 8003806:	bd30      	pop	{r4, r5, pc}
 8003808:	80000001 	.word	0x80000001
 800380c:	20000028 	.word	0x20000028

08003810 <max30102_reset>:
 8003810:	2140      	movs	r1, #64	; 0x40
 8003812:	2009      	movs	r0, #9
 8003814:	b508      	push	{r3, lr}
 8003816:	f7ff ffbb 	bl	8003790 <max30102_Bus_Write>
 800381a:	2140      	movs	r1, #64	; 0x40
 800381c:	2009      	movs	r0, #9
 800381e:	e8bd 4008 	ldmia.w	sp!, {r3, lr}
 8003822:	f7ff bfb5 	b.w	8003790 <max30102_Bus_Write>
	...

08003828 <maxim_max30102_read_reg>:
 8003828:	b410      	push	{r4}
 800382a:	4c04      	ldr	r4, [pc, #16]	; (800383c <maxim_max30102_read_reg+0x14>)
 800382c:	4602      	mov	r2, r0
 800382e:	460b      	mov	r3, r1
 8003830:	7860      	ldrb	r0, [r4, #1]
 8003832:	7821      	ldrb	r1, [r4, #0]
 8003834:	f85d 4b04 	ldr.w	r4, [sp], #4
 8003838:	f7ff bf6e 	b.w	8003718 <pfv_I2C_ReadByte>
 800383c:	20000028 	.word	0x20000028

08003840 <max30102_readDeviceID>:
 8003840:	2300      	movs	r3, #0
 8003842:	b507      	push	{r0, r1, r2, lr}
 8003844:	20fe      	movs	r0, #254	; 0xfe
 8003846:	f10d 0106 	add.w	r1, sp, #6
 800384a:	f88d 3006 	strb.w	r3, [sp, #6]
 800384e:	f88d 3007 	strb.w	r3, [sp, #7]
 8003852:	f7ff ffe9 	bl	8003828 <maxim_max30102_read_reg>
 8003856:	f10d 0107 	add.w	r1, sp, #7
 800385a:	20ff      	movs	r0, #255	; 0xff
 800385c:	f7ff ffe4 	bl	8003828 <maxim_max30102_read_reg>
 8003860:	f89d 3006 	ldrb.w	r3, [sp, #6]
 8003864:	f89d 0007 	ldrb.w	r0, [sp, #7]
 8003868:	ea40 2003 	orr.w	r0, r0, r3, lsl #8
 800386c:	4b02      	ldr	r3, [pc, #8]	; (8003878 <max30102_readDeviceID+0x38>)
 800386e:	8058      	strh	r0, [r3, #2]
 8003870:	b003      	add	sp, #12
 8003872:	f85d fb04 	ldr.w	pc, [sp], #4
 8003876:	bf00      	nop
 8003878:	20000028 	.word	0x20000028

0800387c <max30102_init>:
 800387c:	b530      	push	{r4, r5, lr}
 800387e:	b087      	sub	sp, #28
 8003880:	2210      	movs	r2, #16
 8003882:	2100      	movs	r1, #0
 8003884:	2402      	movs	r4, #2
 8003886:	a802      	add	r0, sp, #8
 8003888:	f000 fc66 	bl	8004158 <memset>
 800388c:	4b42      	ldr	r3, [pc, #264]	; (8003998 <max30102_init+0x11c>)
 800388e:	a901      	add	r1, sp, #4
 8003890:	4842      	ldr	r0, [pc, #264]	; (800399c <max30102_init+0x120>)
 8003892:	6b1a      	ldr	r2, [r3, #48]	; 0x30
 8003894:	f042 0202 	orr.w	r2, r2, #2
 8003898:	631a      	str	r2, [r3, #48]	; 0x30
 800389a:	6b1b      	ldr	r3, [r3, #48]	; 0x30
 800389c:	f003 0302 	and.w	r3, r3, #2
 80038a0:	9300      	str	r3, [sp, #0]
 80038a2:	9b00      	ldr	r3, [sp, #0]
 80038a4:	2340      	movs	r3, #64	; 0x40
 80038a6:	9301      	str	r3, [sp, #4]
 80038a8:	2301      	movs	r3, #1
 80038aa:	e9cd 3403 	strd	r3, r4, [sp, #12]
 80038ae:	f7fd fccd 	bl	800124c <HAL_GPIO_Init>
 80038b2:	4b3b      	ldr	r3, [pc, #236]	; (80039a0 <max30102_init+0x124>)
 80038b4:	2200      	movs	r2, #0
 80038b6:	7858      	ldrb	r0, [r3, #1]
 80038b8:	4611      	mov	r1, r2
 80038ba:	f7ff feab 	bl	8003614 <pfv_I2C_Config>
 80038be:	f7ff ffbf 	bl	8003840 <max30102_readDeviceID>
 80038c2:	4b38      	ldr	r3, [pc, #224]	; (80039a4 <max30102_init+0x128>)
 80038c4:	b2c0      	uxtb	r0, r0
 80038c6:	681b      	ldr	r3, [r3, #0]
 80038c8:	2815      	cmp	r0, #21
 80038ca:	d019      	beq.n	8003900 <max30102_init+0x84>
 80038cc:	42a3      	cmp	r3, r4
 80038ce:	dd15      	ble.n	80038fc <max30102_init+0x80>
 80038d0:	f000 f900 	bl	8003ad4 <os_time_get>
 80038d4:	4605      	mov	r5, r0
 80038d6:	f000 f8fd 	bl	8003ad4 <os_time_get>
 80038da:	f44f 717a 	mov.w	r1, #1000	; 0x3e8
 80038de:	fbb0 f2f1 	udiv	r2, r0, r1
 80038e2:	fb02 0211 	mls	r2, r2, r1, r0
 80038e6:	4830      	ldr	r0, [pc, #192]	; (80039a8 <max30102_init+0x12c>)
 80038e8:	fbb5 f1f1 	udiv	r1, r5, r1
 80038ec:	f000 fac0 	bl	8003e70 <iprintf>
 80038f0:	482e      	ldr	r0, [pc, #184]	; (80039ac <max30102_init+0x130>)
 80038f2:	f000 fabd 	bl	8003e70 <iprintf>
 80038f6:	482e      	ldr	r0, [pc, #184]	; (80039b0 <max30102_init+0x134>)
 80038f8:	f000 fb20 	bl	8003f3c <puts>
 80038fc:	4620      	mov	r0, r4
 80038fe:	e049      	b.n	8003994 <max30102_init+0x118>
 8003900:	2b00      	cmp	r3, #0
 8003902:	dd18      	ble.n	8003936 <max30102_init+0xba>
 8003904:	f000 f8e6 	bl	8003ad4 <os_time_get>
 8003908:	4604      	mov	r4, r0
 800390a:	f000 f8e3 	bl	8003ad4 <os_time_get>
 800390e:	f44f 717a 	mov.w	r1, #1000	; 0x3e8
 8003912:	fbb0 f2f1 	udiv	r2, r0, r1
 8003916:	fb02 0211 	mls	r2, r2, r1, r0
 800391a:	4826      	ldr	r0, [pc, #152]	; (80039b4 <max30102_init+0x138>)
 800391c:	fbb4 f1f1 	udiv	r1, r4, r1
 8003920:	f000 faa6 	bl	8003e70 <iprintf>
 8003924:	f7ff ff8c 	bl	8003840 <max30102_readDeviceID>
 8003928:	4601      	mov	r1, r0
 800392a:	4823      	ldr	r0, [pc, #140]	; (80039b8 <max30102_init+0x13c>)
 800392c:	f000 faa0 	bl	8003e70 <iprintf>
 8003930:	481f      	ldr	r0, [pc, #124]	; (80039b0 <max30102_init+0x134>)
 8003932:	f000 fb03 	bl	8003f3c <puts>
 8003936:	f7ff ff6b 	bl	8003810 <max30102_reset>
 800393a:	21c0      	movs	r1, #192	; 0xc0
 800393c:	2002      	movs	r0, #2
 800393e:	f7ff ff27 	bl	8003790 <max30102_Bus_Write>
 8003942:	2100      	movs	r1, #0
 8003944:	2003      	movs	r0, #3
 8003946:	f7ff ff23 	bl	8003790 <max30102_Bus_Write>
 800394a:	2100      	movs	r1, #0
 800394c:	2004      	movs	r0, #4
 800394e:	f7ff ff1f 	bl	8003790 <max30102_Bus_Write>
 8003952:	2100      	movs	r1, #0
 8003954:	2005      	movs	r0, #5
 8003956:	f7ff ff1b 	bl	8003790 <max30102_Bus_Write>
 800395a:	2100      	movs	r1, #0
 800395c:	2006      	movs	r0, #6
 800395e:	f7ff ff17 	bl	8003790 <max30102_Bus_Write>
 8003962:	210f      	movs	r1, #15
 8003964:	2008      	movs	r0, #8
 8003966:	f7ff ff13 	bl	8003790 <max30102_Bus_Write>
 800396a:	2103      	movs	r1, #3
 800396c:	2009      	movs	r0, #9
 800396e:	f7ff ff0f 	bl	8003790 <max30102_Bus_Write>
 8003972:	2127      	movs	r1, #39	; 0x27
 8003974:	200a      	movs	r0, #10
 8003976:	f7ff ff0b 	bl	8003790 <max30102_Bus_Write>
 800397a:	2124      	movs	r1, #36	; 0x24
 800397c:	200c      	movs	r0, #12
 800397e:	f7ff ff07 	bl	8003790 <max30102_Bus_Write>
 8003982:	2124      	movs	r1, #36	; 0x24
 8003984:	200d      	movs	r0, #13
 8003986:	f7ff ff03 	bl	8003790 <max30102_Bus_Write>
 800398a:	217f      	movs	r1, #127	; 0x7f
 800398c:	2010      	movs	r0, #16
 800398e:	f7ff feff 	bl	8003790 <max30102_Bus_Write>
 8003992:	2000      	movs	r0, #0
 8003994:	b007      	add	sp, #28
 8003996:	bd30      	pop	{r4, r5, pc}
 8003998:	40023800 	.word	0x40023800
 800399c:	40020400 	.word	0x40020400
 80039a0:	20000028 	.word	0x20000028
 80039a4:	20000058 	.word	0x20000058
 80039a8:	080056e3 	.word	0x080056e3
 80039ac:	0800582a 	.word	0x0800582a
 80039b0:	08005681 	.word	0x08005681
 80039b4:	0800569e 	.word	0x0800569e
 80039b8:	08005844 	.word	0x08005844

080039bc <Receive_Handle>:
 80039bc:	4b2c      	ldr	r3, [pc, #176]	; (8003a70 <Receive_Handle+0xb4>)
 80039be:	681b      	ldr	r3, [r3, #0]
 80039c0:	2b00      	cmp	r3, #0
 80039c2:	b530      	push	{r4, r5, lr}
 80039c4:	4c2b      	ldr	r4, [pc, #172]	; (8003a74 <Receive_Handle+0xb8>)
 80039c6:	b085      	sub	sp, #20
 80039c8:	db1e      	blt.n	8003a08 <Receive_Handle+0x4c>
 80039ca:	f000 f883 	bl	8003ad4 <os_time_get>
 80039ce:	4605      	mov	r5, r0
 80039d0:	f000 f880 	bl	8003ad4 <os_time_get>
 80039d4:	f44f 717a 	mov.w	r1, #1000	; 0x3e8
 80039d8:	fbb0 f2f1 	udiv	r2, r0, r1
 80039dc:	fb02 0211 	mls	r2, r2, r1, r0
 80039e0:	4825      	ldr	r0, [pc, #148]	; (8003a78 <Receive_Handle+0xbc>)
 80039e2:	fbb5 f1f1 	udiv	r1, r5, r1
 80039e6:	f000 fa43 	bl	8003e70 <iprintf>
 80039ea:	7963      	ldrb	r3, [r4, #5]
 80039ec:	7862      	ldrb	r2, [r4, #1]
 80039ee:	9302      	str	r3, [sp, #8]
 80039f0:	7923      	ldrb	r3, [r4, #4]
 80039f2:	7821      	ldrb	r1, [r4, #0]
 80039f4:	9301      	str	r3, [sp, #4]
 80039f6:	78e3      	ldrb	r3, [r4, #3]
 80039f8:	4820      	ldr	r0, [pc, #128]	; (8003a7c <Receive_Handle+0xc0>)
 80039fa:	9300      	str	r3, [sp, #0]
 80039fc:	78a3      	ldrb	r3, [r4, #2]
 80039fe:	f000 fa37 	bl	8003e70 <iprintf>
 8003a02:	481f      	ldr	r0, [pc, #124]	; (8003a80 <Receive_Handle+0xc4>)
 8003a04:	f000 fa9a 	bl	8003f3c <puts>
 8003a08:	7822      	ldrb	r2, [r4, #0]
 8003a0a:	491e      	ldr	r1, [pc, #120]	; (8003a84 <Receive_Handle+0xc8>)
 8003a0c:	320f      	adds	r2, #15
 8003a0e:	b2d2      	uxtb	r2, r2
 8003a10:	2a0d      	cmp	r2, #13
 8003a12:	d82b      	bhi.n	8003a6c <Receive_Handle+0xb0>
 8003a14:	2301      	movs	r3, #1
 8003a16:	f242 2081 	movw	r0, #8833	; 0x2281
 8003a1a:	4093      	lsls	r3, r2
 8003a1c:	4018      	ands	r0, r3
 8003a1e:	d111      	bne.n	8003a44 <Receive_Handle+0x88>
 8003a20:	f640 1504 	movw	r5, #2308	; 0x904
 8003a24:	402b      	ands	r3, r5
 8003a26:	d113      	bne.n	8003a50 <Receive_Handle+0x94>
 8003a28:	2a0c      	cmp	r2, #12
 8003a2a:	d11f      	bne.n	8003a6c <Receive_Handle+0xb0>
 8003a2c:	4a16      	ldr	r2, [pc, #88]	; (8003a88 <Receive_Handle+0xcc>)
 8003a2e:	7860      	ldrb	r0, [r4, #1]
 8003a30:	7210      	strb	r0, [r2, #8]
 8003a32:	78a0      	ldrb	r0, [r4, #2]
 8003a34:	7250      	strb	r0, [r2, #9]
 8003a36:	78e0      	ldrb	r0, [r4, #3]
 8003a38:	7290      	strb	r0, [r2, #10]
 8003a3a:	7960      	ldrb	r0, [r4, #5]
 8003a3c:	7310      	strb	r0, [r2, #12]
 8003a3e:	7920      	ldrb	r0, [r4, #4]
 8003a40:	7350      	strb	r0, [r2, #13]
 8003a42:	e003      	b.n	8003a4c <Receive_Handle+0x90>
 8003a44:	4b10      	ldr	r3, [pc, #64]	; (8003a88 <Receive_Handle+0xcc>)
 8003a46:	78e2      	ldrb	r2, [r4, #3]
 8003a48:	715a      	strb	r2, [r3, #5]
 8003a4a:	2300      	movs	r3, #0
 8003a4c:	700b      	strb	r3, [r1, #0]
 8003a4e:	e004      	b.n	8003a5a <Receive_Handle+0x9e>
 8003a50:	8863      	ldrh	r3, [r4, #2]
 8003a52:	4a0d      	ldr	r2, [pc, #52]	; (8003a88 <Receive_Handle+0xcc>)
 8003a54:	ba5b      	rev16	r3, r3
 8003a56:	7008      	strb	r0, [r1, #0]
 8003a58:	8293      	strh	r3, [r2, #20]
 8003a5a:	f44f 6280 	mov.w	r2, #1024	; 0x400
 8003a5e:	2100      	movs	r1, #0
 8003a60:	4804      	ldr	r0, [pc, #16]	; (8003a74 <Receive_Handle+0xb8>)
 8003a62:	b005      	add	sp, #20
 8003a64:	e8bd 4030 	ldmia.w	sp!, {r4, r5, lr}
 8003a68:	f000 bb76 	b.w	8004158 <memset>
 8003a6c:	2301      	movs	r3, #1
 8003a6e:	e7ed      	b.n	8003a4c <Receive_Handle+0x90>
 8003a70:	20000058 	.word	0x20000058
 8003a74:	200029e8 	.word	0x200029e8
 8003a78:	08005650 	.word	0x08005650
 8003a7c:	0800585e 	.word	0x0800585e
 8003a80:	08005681 	.word	0x08005681
 8003a84:	20000054 	.word	0x20000054
 8003a88:	2000003e 	.word	0x2000003e

08003a8c <UART2_Callback_Handler>:
 8003a8c:	b510      	push	{r4, lr}
 8003a8e:	4c0e      	ldr	r4, [pc, #56]	; (8003ac8 <UART2_Callback_Handler+0x3c>)
 8003a90:	4620      	mov	r0, r4
 8003a92:	f7fe fe6f 	bl	8002774 <HAL_UART_DMAStop>
 8003a96:	6ee3      	ldr	r3, [r4, #108]	; 0x6c
 8003a98:	4a0c      	ldr	r2, [pc, #48]	; (8003acc <UART2_Callback_Handler+0x40>)
 8003a9a:	681b      	ldr	r3, [r3, #0]
 8003a9c:	685b      	ldr	r3, [r3, #4]
 8003a9e:	f5c3 6380 	rsb	r3, r3, #1024	; 0x400
 8003aa2:	6013      	str	r3, [r2, #0]
 8003aa4:	f7ff ff8a 	bl	80039bc <Receive_Handle>
 8003aa8:	4b09      	ldr	r3, [pc, #36]	; (8003ad0 <UART2_Callback_Handler+0x44>)
 8003aaa:	f44f 6280 	mov.w	r2, #1024	; 0x400
 8003aae:	2100      	movs	r1, #0
 8003ab0:	4618      	mov	r0, r3
 8003ab2:	f000 fb51 	bl	8004158 <memset>
 8003ab6:	f44f 6280 	mov.w	r2, #1024	; 0x400
 8003aba:	4601      	mov	r1, r0
 8003abc:	4620      	mov	r0, r4
 8003abe:	e8bd 4010 	ldmia.w	sp!, {r4, lr}
 8003ac2:	f7fe be0f 	b.w	80026e4 <HAL_UART_Receive_DMA>
 8003ac6:	bf00      	nop
 8003ac8:	200001e4 	.word	0x200001e4
 8003acc:	20002de8 	.word	0x20002de8
 8003ad0:	200029e8 	.word	0x200029e8

08003ad4 <os_time_get>:
 8003ad4:	f7fd b966 	b.w	8000da4 <HAL_GetTick>

08003ad8 <HAL_UART_RxCpltCallback>:
 8003ad8:	6802      	ldr	r2, [r0, #0]
 8003ada:	4b6c      	ldr	r3, [pc, #432]	; (8003c8c <HAL_UART_RxCpltCallback+0x1b4>)
 8003adc:	429a      	cmp	r2, r3
 8003ade:	e92d 47f0 	stmdb	sp!, {r4, r5, r6, r7, r8, r9, sl, lr}
 8003ae2:	4606      	mov	r6, r0
 8003ae4:	b09a      	sub	sp, #104	; 0x68
 8003ae6:	f040 80cd 	bne.w	8003c84 <HAL_UART_RxCpltCallback+0x1ac>
 8003aea:	4b69      	ldr	r3, [pc, #420]	; (8003c90 <HAL_UART_RxCpltCallback+0x1b8>)
 8003aec:	781b      	ldrb	r3, [r3, #0]
 8003aee:	2b0d      	cmp	r3, #13
 8003af0:	d00f      	beq.n	8003b12 <HAL_UART_RxCpltCallback+0x3a>
 8003af2:	2b0a      	cmp	r3, #10
 8003af4:	d005      	beq.n	8003b02 <HAL_UART_RxCpltCallback+0x2a>
 8003af6:	4967      	ldr	r1, [pc, #412]	; (8003c94 <HAL_UART_RxCpltCallback+0x1bc>)
 8003af8:	680a      	ldr	r2, [r1, #0]
 8003afa:	1c50      	adds	r0, r2, #1
 8003afc:	6008      	str	r0, [r1, #0]
 8003afe:	4966      	ldr	r1, [pc, #408]	; (8003c98 <HAL_UART_RxCpltCallback+0x1c0>)
 8003b00:	548b      	strb	r3, [r1, r2]
 8003b02:	2201      	movs	r2, #1
 8003b04:	4962      	ldr	r1, [pc, #392]	; (8003c90 <HAL_UART_RxCpltCallback+0x1b8>)
 8003b06:	4630      	mov	r0, r6
 8003b08:	b01a      	add	sp, #104	; 0x68
 8003b0a:	e8bd 47f0 	ldmia.w	sp!, {r4, r5, r6, r7, r8, r9, sl, lr}
 8003b0e:	f7fe bd93 	b.w	8002638 <HAL_UART_Receive_IT>
 8003b12:	4b60      	ldr	r3, [pc, #384]	; (8003c94 <HAL_UART_RxCpltCallback+0x1bc>)
 8003b14:	2400      	movs	r4, #0
 8003b16:	4f60      	ldr	r7, [pc, #384]	; (8003c98 <HAL_UART_RxCpltCallback+0x1c0>)
 8003b18:	681a      	ldr	r2, [r3, #0]
 8003b1a:	4638      	mov	r0, r7
 8003b1c:	601c      	str	r4, [r3, #0]
 8003b1e:	54bc      	strb	r4, [r7, r2]
 8003b20:	f7fc fb8e 	bl	8000240 <strlen>
 8003b24:	213d      	movs	r1, #61	; 0x3d
 8003b26:	4605      	mov	r5, r0
 8003b28:	4638      	mov	r0, r7
 8003b2a:	e9cd 4406 	strd	r4, r4, [sp, #24]
 8003b2e:	e9cd 4408 	strd	r4, r4, [sp, #32]
 8003b32:	f000 fb19 	bl	8004168 <strchr>
 8003b36:	2800      	cmp	r0, #0
 8003b38:	d0e3      	beq.n	8003b02 <HAL_UART_RxCpltCallback+0x2a>
 8003b3a:	2234      	movs	r2, #52	; 0x34
 8003b3c:	4621      	mov	r1, r4
 8003b3e:	af0a      	add	r7, sp, #40	; 0x28
 8003b40:	eb0d 0002 	add.w	r0, sp, r2
 8003b44:	f000 fb08 	bl	8004158 <memset>
 8003b48:	4b54      	ldr	r3, [pc, #336]	; (8003c9c <HAL_UART_RxCpltCallback+0x1c4>)
 8003b4a:	463a      	mov	r2, r7
 8003b4c:	f103 0c08 	add.w	ip, r3, #8
 8003b50:	6818      	ldr	r0, [r3, #0]
 8003b52:	3308      	adds	r3, #8
 8003b54:	f853 1c04 	ldr.w	r1, [r3, #-4]
 8003b58:	4614      	mov	r4, r2
 8003b5a:	4563      	cmp	r3, ip
 8003b5c:	c403      	stmia	r4!, {r0, r1}
 8003b5e:	4622      	mov	r2, r4
 8003b60:	d1f6      	bne.n	8003b50 <HAL_UART_RxCpltCallback+0x78>
 8003b62:	6818      	ldr	r0, [r3, #0]
 8003b64:	f105 39ff 	add.w	r9, r5, #4294967295
 8003b68:	791b      	ldrb	r3, [r3, #4]
 8003b6a:	6020      	str	r0, [r4, #0]
 8003b6c:	7123      	strb	r3, [r4, #4]
 8003b6e:	2400      	movs	r4, #0
 8003b70:	f8df 8124 	ldr.w	r8, [pc, #292]	; 8003c98 <HAL_UART_RxCpltCallback+0x1c0>
 8003b74:	f8df a144 	ldr.w	sl, [pc, #324]	; 8003cbc <HAL_UART_RxCpltCallback+0x1e4>
 8003b78:	42a5      	cmp	r5, r4
 8003b7a:	d175      	bne.n	8003c68 <HAL_UART_RxCpltCallback+0x190>
 8003b7c:	ab09      	add	r3, sp, #36	; 0x24
 8003b7e:	f04f 0800 	mov.w	r8, #0
 8003b82:	aa06      	add	r2, sp, #24
 8003b84:	4639      	mov	r1, r7
 8003b86:	9301      	str	r3, [sp, #4]
 8003b88:	ab08      	add	r3, sp, #32
 8003b8a:	4843      	ldr	r0, [pc, #268]	; (8003c98 <HAL_UART_RxCpltCallback+0x1c0>)
 8003b8c:	9300      	str	r3, [sp, #0]
 8003b8e:	ab07      	add	r3, sp, #28
 8003b90:	4c43      	ldr	r4, [pc, #268]	; (8003ca0 <HAL_UART_RxCpltCallback+0x1c8>)
 8003b92:	f8cd 8008 	str.w	r8, [sp, #8]
 8003b96:	f000 f9d9 	bl	8003f4c <siscanf>
 8003b9a:	462a      	mov	r2, r5
 8003b9c:	4641      	mov	r1, r8
 8003b9e:	483e      	ldr	r0, [pc, #248]	; (8003c98 <HAL_UART_RxCpltCallback+0x1c0>)
 8003ba0:	f000 fada 	bl	8004158 <memset>
 8003ba4:	6823      	ldr	r3, [r4, #0]
 8003ba6:	4543      	cmp	r3, r8
 8003ba8:	db1c      	blt.n	8003be4 <HAL_UART_RxCpltCallback+0x10c>
 8003baa:	f7fd f8fb 	bl	8000da4 <HAL_GetTick>
 8003bae:	4605      	mov	r5, r0
 8003bb0:	f7fd f8f8 	bl	8000da4 <HAL_GetTick>
 8003bb4:	f44f 717a 	mov.w	r1, #1000	; 0x3e8
 8003bb8:	fbb0 f2f1 	udiv	r2, r0, r1
 8003bbc:	fb02 0211 	mls	r2, r2, r1, r0
 8003bc0:	4838      	ldr	r0, [pc, #224]	; (8003ca4 <HAL_UART_RxCpltCallback+0x1cc>)
 8003bc2:	fbb5 f1f1 	udiv	r1, r5, r1
 8003bc6:	f000 f953 	bl	8003e70 <iprintf>
 8003bca:	9b09      	ldr	r3, [sp, #36]	; 0x24
 8003bcc:	9906      	ldr	r1, [sp, #24]
 8003bce:	9300      	str	r3, [sp, #0]
 8003bd0:	4835      	ldr	r0, [pc, #212]	; (8003ca8 <HAL_UART_RxCpltCallback+0x1d0>)
 8003bd2:	f8cd 8004 	str.w	r8, [sp, #4]
 8003bd6:	e9dd 2307 	ldrd	r2, r3, [sp, #28]
 8003bda:	f000 f949 	bl	8003e70 <iprintf>
 8003bde:	4833      	ldr	r0, [pc, #204]	; (8003cac <HAL_UART_RxCpltCallback+0x1d4>)
 8003be0:	f000 f9ac 	bl	8003f3c <puts>
 8003be4:	6823      	ldr	r3, [r4, #0]
 8003be6:	2b00      	cmp	r3, #0
 8003be8:	dd1e      	ble.n	8003c28 <HAL_UART_RxCpltCallback+0x150>
 8003bea:	9b09      	ldr	r3, [sp, #36]	; 0x24
 8003bec:	e9dd 8907 	ldrd	r8, r9, [sp, #28]
 8003bf0:	9305      	str	r3, [sp, #20]
 8003bf2:	f7fd f8d7 	bl	8000da4 <HAL_GetTick>
 8003bf6:	4607      	mov	r7, r0
 8003bf8:	f7fd f8d4 	bl	8000da4 <HAL_GetTick>
 8003bfc:	f44f 717a 	mov.w	r1, #1000	; 0x3e8
 8003c00:	fbb0 f2f1 	udiv	r2, r0, r1
 8003c04:	fb02 0211 	mls	r2, r2, r1, r0
 8003c08:	4829      	ldr	r0, [pc, #164]	; (8003cb0 <HAL_UART_RxCpltCallback+0x1d8>)
 8003c0a:	fbb7 f1f1 	udiv	r1, r7, r1
 8003c0e:	f000 f92f 	bl	8003e70 <iprintf>
 8003c12:	2200      	movs	r2, #0
 8003c14:	9b05      	ldr	r3, [sp, #20]
 8003c16:	4641      	mov	r1, r8
 8003c18:	9200      	str	r2, [sp, #0]
 8003c1a:	464a      	mov	r2, r9
 8003c1c:	4825      	ldr	r0, [pc, #148]	; (8003cb4 <HAL_UART_RxCpltCallback+0x1dc>)
 8003c1e:	f000 f927 	bl	8003e70 <iprintf>
 8003c22:	4822      	ldr	r0, [pc, #136]	; (8003cac <HAL_UART_RxCpltCallback+0x1d4>)
 8003c24:	f000 f98a 	bl	8003f3c <puts>
 8003c28:	6823      	ldr	r3, [r4, #0]
 8003c2a:	2b00      	cmp	r3, #0
 8003c2c:	dd15      	ble.n	8003c5a <HAL_UART_RxCpltCallback+0x182>
 8003c2e:	f7fd f8b9 	bl	8000da4 <HAL_GetTick>
 8003c32:	4604      	mov	r4, r0
 8003c34:	f7fd f8b6 	bl	8000da4 <HAL_GetTick>
 8003c38:	f44f 717a 	mov.w	r1, #1000	; 0x3e8
 8003c3c:	fbb0 f2f1 	udiv	r2, r0, r1
 8003c40:	fb02 0211 	mls	r2, r2, r1, r0
 8003c44:	481a      	ldr	r0, [pc, #104]	; (8003cb0 <HAL_UART_RxCpltCallback+0x1d8>)
 8003c46:	fbb4 f1f1 	udiv	r1, r4, r1
 8003c4a:	f000 f911 	bl	8003e70 <iprintf>
 8003c4e:	481a      	ldr	r0, [pc, #104]	; (8003cb8 <HAL_UART_RxCpltCallback+0x1e0>)
 8003c50:	f000 f90e 	bl	8003e70 <iprintf>
 8003c54:	4815      	ldr	r0, [pc, #84]	; (8003cac <HAL_UART_RxCpltCallback+0x1d4>)
 8003c56:	f000 f971 	bl	8003f3c <puts>
 8003c5a:	f44f 6280 	mov.w	r2, #1024	; 0x400
 8003c5e:	2100      	movs	r1, #0
 8003c60:	480d      	ldr	r0, [pc, #52]	; (8003c98 <HAL_UART_RxCpltCallback+0x1c0>)
 8003c62:	f000 fa79 	bl	8004158 <memset>
 8003c66:	e74c      	b.n	8003b02 <HAL_UART_RxCpltCallback+0x2a>
 8003c68:	f818 3b01 	ldrb.w	r3, [r8], #1
 8003c6c:	2b2c      	cmp	r3, #44	; 0x2c
 8003c6e:	d107      	bne.n	8003c80 <HAL_UART_RxCpltCallback+0x1a8>
 8003c70:	454c      	cmp	r4, r9
 8003c72:	d205      	bcs.n	8003c80 <HAL_UART_RxCpltCallback+0x1a8>
 8003c74:	4638      	mov	r0, r7
 8003c76:	f7fc fae3 	bl	8000240 <strlen>
 8003c7a:	f8da 3000 	ldr.w	r3, [sl]
 8003c7e:	503b      	str	r3, [r7, r0]
 8003c80:	3401      	adds	r4, #1
 8003c82:	e779      	b.n	8003b78 <HAL_UART_RxCpltCallback+0xa0>
 8003c84:	b01a      	add	sp, #104	; 0x68
 8003c86:	e8bd 87f0 	ldmia.w	sp!, {r4, r5, r6, r7, r8, r9, sl, pc}
 8003c8a:	bf00      	nop
 8003c8c:	40004800 	.word	0x40004800
 8003c90:	200031f0 	.word	0x200031f0
 8003c94:	200031ec 	.word	0x200031ec
 8003c98:	20002dec 	.word	0x20002dec
 8003c9c:	08005870 	.word	0x08005870
 8003ca0:	20000058 	.word	0x20000058
 8003ca4:	08005650 	.word	0x08005650
 8003ca8:	08005883 	.word	0x08005883
 8003cac:	08005681 	.word	0x08005681
 8003cb0:	0800569e 	.word	0x0800569e
 8003cb4:	080058be 	.word	0x080058be
 8003cb8:	080058ed 	.word	0x080058ed
 8003cbc:	0800587e 	.word	0x0800587e

08003cc0 <__io_putchar>:
 8003cc0:	b507      	push	{r0, r1, r2, lr}
 8003cc2:	f64f 73ff 	movw	r3, #65535	; 0xffff
 8003cc6:	9001      	str	r0, [sp, #4]
 8003cc8:	2201      	movs	r2, #1
 8003cca:	a901      	add	r1, sp, #4
 8003ccc:	4803      	ldr	r0, [pc, #12]	; (8003cdc <__io_putchar+0x1c>)
 8003cce:	f7ff f8d7 	bl	8002e80 <HAL_UART_Transmit>
 8003cd2:	9801      	ldr	r0, [sp, #4]
 8003cd4:	b003      	add	sp, #12
 8003cd6:	f85d fb04 	ldr.w	pc, [sp], #4
 8003cda:	bf00      	nop
 8003cdc:	20000264 	.word	0x20000264

08003ce0 <DebugLevelInit>:
 8003ce0:	4b01      	ldr	r3, [pc, #4]	; (8003ce8 <DebugLevelInit+0x8>)
 8003ce2:	6018      	str	r0, [r3, #0]
 8003ce4:	4770      	bx	lr
 8003ce6:	bf00      	nop
 8003ce8:	20000058 	.word	0x20000058

08003cec <std>:
 8003cec:	2300      	movs	r3, #0
 8003cee:	b510      	push	{r4, lr}
 8003cf0:	4604      	mov	r4, r0
 8003cf2:	e9c0 3300 	strd	r3, r3, [r0]
 8003cf6:	e9c0 3304 	strd	r3, r3, [r0, #16]
 8003cfa:	6083      	str	r3, [r0, #8]
 8003cfc:	8181      	strh	r1, [r0, #12]
 8003cfe:	6643      	str	r3, [r0, #100]	; 0x64
 8003d00:	81c2      	strh	r2, [r0, #14]
 8003d02:	6183      	str	r3, [r0, #24]
 8003d04:	4619      	mov	r1, r3
 8003d06:	2208      	movs	r2, #8
 8003d08:	305c      	adds	r0, #92	; 0x5c
 8003d0a:	f000 fa25 	bl	8004158 <memset>
 8003d0e:	4b0d      	ldr	r3, [pc, #52]	; (8003d44 <std+0x58>)
 8003d10:	6263      	str	r3, [r4, #36]	; 0x24
 8003d12:	4b0d      	ldr	r3, [pc, #52]	; (8003d48 <std+0x5c>)
 8003d14:	62a3      	str	r3, [r4, #40]	; 0x28
 8003d16:	4b0d      	ldr	r3, [pc, #52]	; (8003d4c <std+0x60>)
 8003d18:	62e3      	str	r3, [r4, #44]	; 0x2c
 8003d1a:	4b0d      	ldr	r3, [pc, #52]	; (8003d50 <std+0x64>)
 8003d1c:	6323      	str	r3, [r4, #48]	; 0x30
 8003d1e:	4b0d      	ldr	r3, [pc, #52]	; (8003d54 <std+0x68>)
 8003d20:	6224      	str	r4, [r4, #32]
 8003d22:	429c      	cmp	r4, r3
 8003d24:	d006      	beq.n	8003d34 <std+0x48>
 8003d26:	f103 0268 	add.w	r2, r3, #104	; 0x68
 8003d2a:	4294      	cmp	r4, r2
 8003d2c:	d002      	beq.n	8003d34 <std+0x48>
 8003d2e:	33d0      	adds	r3, #208	; 0xd0
 8003d30:	429c      	cmp	r4, r3
 8003d32:	d105      	bne.n	8003d40 <std+0x54>
 8003d34:	f104 0058 	add.w	r0, r4, #88	; 0x58
 8003d38:	e8bd 4010 	ldmia.w	sp!, {r4, lr}
 8003d3c:	f000 ba92 	b.w	8004264 <__retarget_lock_init_recursive>
 8003d40:	bd10      	pop	{r4, pc}
 8003d42:	bf00      	nop
 8003d44:	08003fa5 	.word	0x08003fa5
 8003d48:	08003fcb 	.word	0x08003fcb
 8003d4c:	08004003 	.word	0x08004003
 8003d50:	08004027 	.word	0x08004027
 8003d54:	200031f4 	.word	0x200031f4

08003d58 <stdio_exit_handler>:
 8003d58:	4a02      	ldr	r2, [pc, #8]	; (8003d64 <stdio_exit_handler+0xc>)
 8003d5a:	4903      	ldr	r1, [pc, #12]	; (8003d68 <stdio_exit_handler+0x10>)
 8003d5c:	4803      	ldr	r0, [pc, #12]	; (8003d6c <stdio_exit_handler+0x14>)
 8003d5e:	f000 b869 	b.w	8003e34 <_fwalk_sglue>
 8003d62:	bf00      	nop
 8003d64:	2000005c 	.word	0x2000005c
 8003d68:	08005151 	.word	0x08005151
 8003d6c:	20000068 	.word	0x20000068

08003d70 <cleanup_stdio>:
 8003d70:	6841      	ldr	r1, [r0, #4]
 8003d72:	4b0c      	ldr	r3, [pc, #48]	; (8003da4 <cleanup_stdio+0x34>)
 8003d74:	4299      	cmp	r1, r3
 8003d76:	b510      	push	{r4, lr}
 8003d78:	4604      	mov	r4, r0
 8003d7a:	d001      	beq.n	8003d80 <cleanup_stdio+0x10>
 8003d7c:	f001 f9e8 	bl	8005150 <_fflush_r>
 8003d80:	68a1      	ldr	r1, [r4, #8]
 8003d82:	4b09      	ldr	r3, [pc, #36]	; (8003da8 <cleanup_stdio+0x38>)
 8003d84:	4299      	cmp	r1, r3
 8003d86:	d002      	beq.n	8003d8e <cleanup_stdio+0x1e>
 8003d88:	4620      	mov	r0, r4
 8003d8a:	f001 f9e1 	bl	8005150 <_fflush_r>
 8003d8e:	68e1      	ldr	r1, [r4, #12]
 8003d90:	4b06      	ldr	r3, [pc, #24]	; (8003dac <cleanup_stdio+0x3c>)
 8003d92:	4299      	cmp	r1, r3
 8003d94:	d004      	beq.n	8003da0 <cleanup_stdio+0x30>
 8003d96:	4620      	mov	r0, r4
 8003d98:	e8bd 4010 	ldmia.w	sp!, {r4, lr}
 8003d9c:	f001 b9d8 	b.w	8005150 <_fflush_r>
 8003da0:	bd10      	pop	{r4, pc}
 8003da2:	bf00      	nop
 8003da4:	200031f4 	.word	0x200031f4
 8003da8:	2000325c 	.word	0x2000325c
 8003dac:	200032c4 	.word	0x200032c4

08003db0 <global_stdio_init.part.0>:
 8003db0:	b510      	push	{r4, lr}
 8003db2:	4b0b      	ldr	r3, [pc, #44]	; (8003de0 <global_stdio_init.part.0+0x30>)
 8003db4:	4c0b      	ldr	r4, [pc, #44]	; (8003de4 <global_stdio_init.part.0+0x34>)
 8003db6:	4a0c      	ldr	r2, [pc, #48]	; (8003de8 <global_stdio_init.part.0+0x38>)
 8003db8:	601a      	str	r2, [r3, #0]
 8003dba:	4620      	mov	r0, r4
 8003dbc:	2200      	movs	r2, #0
 8003dbe:	2104      	movs	r1, #4
 8003dc0:	f7ff ff94 	bl	8003cec <std>
 8003dc4:	f104 0068 	add.w	r0, r4, #104	; 0x68
 8003dc8:	2201      	movs	r2, #1
 8003dca:	2109      	movs	r1, #9
 8003dcc:	f7ff ff8e 	bl	8003cec <std>
 8003dd0:	f104 00d0 	add.w	r0, r4, #208	; 0xd0
 8003dd4:	2202      	movs	r2, #2
 8003dd6:	e8bd 4010 	ldmia.w	sp!, {r4, lr}
 8003dda:	2112      	movs	r1, #18
 8003ddc:	f7ff bf86 	b.w	8003cec <std>
 8003de0:	2000332c 	.word	0x2000332c
 8003de4:	200031f4 	.word	0x200031f4
 8003de8:	08003d59 	.word	0x08003d59

08003dec <__sfp_lock_acquire>:
 8003dec:	4801      	ldr	r0, [pc, #4]	; (8003df4 <__sfp_lock_acquire+0x8>)
 8003dee:	f000 ba3a 	b.w	8004266 <__retarget_lock_acquire_recursive>
 8003df2:	bf00      	nop
 8003df4:	20003335 	.word	0x20003335

08003df8 <__sfp_lock_release>:
 8003df8:	4801      	ldr	r0, [pc, #4]	; (8003e00 <__sfp_lock_release+0x8>)
 8003dfa:	f000 ba35 	b.w	8004268 <__retarget_lock_release_recursive>
 8003dfe:	bf00      	nop
 8003e00:	20003335 	.word	0x20003335

08003e04 <__sinit>:
 8003e04:	b510      	push	{r4, lr}
 8003e06:	4604      	mov	r4, r0
 8003e08:	f7ff fff0 	bl	8003dec <__sfp_lock_acquire>
 8003e0c:	6a23      	ldr	r3, [r4, #32]
 8003e0e:	b11b      	cbz	r3, 8003e18 <__sinit+0x14>
 8003e10:	e8bd 4010 	ldmia.w	sp!, {r4, lr}
 8003e14:	f7ff bff0 	b.w	8003df8 <__sfp_lock_release>
 8003e18:	4b04      	ldr	r3, [pc, #16]	; (8003e2c <__sinit+0x28>)
 8003e1a:	6223      	str	r3, [r4, #32]
 8003e1c:	4b04      	ldr	r3, [pc, #16]	; (8003e30 <__sinit+0x2c>)
 8003e1e:	681b      	ldr	r3, [r3, #0]
 8003e20:	2b00      	cmp	r3, #0
 8003e22:	d1f5      	bne.n	8003e10 <__sinit+0xc>
 8003e24:	f7ff ffc4 	bl	8003db0 <global_stdio_init.part.0>
 8003e28:	e7f2      	b.n	8003e10 <__sinit+0xc>
 8003e2a:	bf00      	nop
 8003e2c:	08003d71 	.word	0x08003d71
 8003e30:	2000332c 	.word	0x2000332c

08003e34 <_fwalk_sglue>:
 8003e34:	e92d 43f8 	stmdb	sp!, {r3, r4, r5, r6, r7, r8, r9, lr}
 8003e38:	4607      	mov	r7, r0
 8003e3a:	4688      	mov	r8, r1
 8003e3c:	4614      	mov	r4, r2
 8003e3e:	2600      	movs	r6, #0
 8003e40:	e9d4 9501 	ldrd	r9, r5, [r4, #4]
 8003e44:	f1b9 0901 	subs.w	r9, r9, #1
 8003e48:	d505      	bpl.n	8003e56 <_fwalk_sglue+0x22>
 8003e4a:	6824      	ldr	r4, [r4, #0]
 8003e4c:	2c00      	cmp	r4, #0
 8003e4e:	d1f7      	bne.n	8003e40 <_fwalk_sglue+0xc>
 8003e50:	4630      	mov	r0, r6
 8003e52:	e8bd 83f8 	ldmia.w	sp!, {r3, r4, r5, r6, r7, r8, r9, pc}
 8003e56:	89ab      	ldrh	r3, [r5, #12]
 8003e58:	2b01      	cmp	r3, #1
 8003e5a:	d907      	bls.n	8003e6c <_fwalk_sglue+0x38>
 8003e5c:	f9b5 300e 	ldrsh.w	r3, [r5, #14]
 8003e60:	3301      	adds	r3, #1
 8003e62:	d003      	beq.n	8003e6c <_fwalk_sglue+0x38>
 8003e64:	4629      	mov	r1, r5
 8003e66:	4638      	mov	r0, r7
 8003e68:	47c0      	blx	r8
 8003e6a:	4306      	orrs	r6, r0
 8003e6c:	3568      	adds	r5, #104	; 0x68
 8003e6e:	e7e9      	b.n	8003e44 <_fwalk_sglue+0x10>

08003e70 <iprintf>:
 8003e70:	b40f      	push	{r0, r1, r2, r3}
 8003e72:	b507      	push	{r0, r1, r2, lr}
 8003e74:	4906      	ldr	r1, [pc, #24]	; (8003e90 <iprintf+0x20>)
 8003e76:	ab04      	add	r3, sp, #16
 8003e78:	6808      	ldr	r0, [r1, #0]
 8003e7a:	f853 2b04 	ldr.w	r2, [r3], #4
 8003e7e:	6881      	ldr	r1, [r0, #8]
 8003e80:	9301      	str	r3, [sp, #4]
 8003e82:	f000 fce7 	bl	8004854 <_vfiprintf_r>
 8003e86:	b003      	add	sp, #12
 8003e88:	f85d eb04 	ldr.w	lr, [sp], #4
 8003e8c:	b004      	add	sp, #16
 8003e8e:	4770      	bx	lr
 8003e90:	200000b4 	.word	0x200000b4

08003e94 <_puts_r>:
 8003e94:	6a03      	ldr	r3, [r0, #32]
 8003e96:	b570      	push	{r4, r5, r6, lr}
 8003e98:	6884      	ldr	r4, [r0, #8]
 8003e9a:	4605      	mov	r5, r0
 8003e9c:	460e      	mov	r6, r1
 8003e9e:	b90b      	cbnz	r3, 8003ea4 <_puts_r+0x10>
 8003ea0:	f7ff ffb0 	bl	8003e04 <__sinit>
 8003ea4:	6e63      	ldr	r3, [r4, #100]	; 0x64
 8003ea6:	07db      	lsls	r3, r3, #31
 8003ea8:	d405      	bmi.n	8003eb6 <_puts_r+0x22>
 8003eaa:	89a3      	ldrh	r3, [r4, #12]
 8003eac:	0598      	lsls	r0, r3, #22
 8003eae:	d402      	bmi.n	8003eb6 <_puts_r+0x22>
 8003eb0:	6da0      	ldr	r0, [r4, #88]	; 0x58
 8003eb2:	f000 f9d8 	bl	8004266 <__retarget_lock_acquire_recursive>
 8003eb6:	89a3      	ldrh	r3, [r4, #12]
 8003eb8:	0719      	lsls	r1, r3, #28
 8003eba:	d513      	bpl.n	8003ee4 <_puts_r+0x50>
 8003ebc:	6923      	ldr	r3, [r4, #16]
 8003ebe:	b18b      	cbz	r3, 8003ee4 <_puts_r+0x50>
 8003ec0:	3e01      	subs	r6, #1
 8003ec2:	68a3      	ldr	r3, [r4, #8]
 8003ec4:	f816 1f01 	ldrb.w	r1, [r6, #1]!
 8003ec8:	3b01      	subs	r3, #1
 8003eca:	60a3      	str	r3, [r4, #8]
 8003ecc:	b9e9      	cbnz	r1, 8003f0a <_puts_r+0x76>
 8003ece:	2b00      	cmp	r3, #0
 8003ed0:	da2e      	bge.n	8003f30 <_puts_r+0x9c>
 8003ed2:	4622      	mov	r2, r4
 8003ed4:	210a      	movs	r1, #10
 8003ed6:	4628      	mov	r0, r5
 8003ed8:	f000 f8a9 	bl	800402e <__swbuf_r>
 8003edc:	3001      	adds	r0, #1
 8003ede:	d007      	beq.n	8003ef0 <_puts_r+0x5c>
 8003ee0:	250a      	movs	r5, #10
 8003ee2:	e007      	b.n	8003ef4 <_puts_r+0x60>
 8003ee4:	4621      	mov	r1, r4
 8003ee6:	4628      	mov	r0, r5
 8003ee8:	f000 f8de 	bl	80040a8 <__swsetup_r>
 8003eec:	2800      	cmp	r0, #0
 8003eee:	d0e7      	beq.n	8003ec0 <_puts_r+0x2c>
 8003ef0:	f04f 35ff 	mov.w	r5, #4294967295
 8003ef4:	6e63      	ldr	r3, [r4, #100]	; 0x64
 8003ef6:	07da      	lsls	r2, r3, #31
 8003ef8:	d405      	bmi.n	8003f06 <_puts_r+0x72>
 8003efa:	89a3      	ldrh	r3, [r4, #12]
 8003efc:	059b      	lsls	r3, r3, #22
 8003efe:	d402      	bmi.n	8003f06 <_puts_r+0x72>
 8003f00:	6da0      	ldr	r0, [r4, #88]	; 0x58
 8003f02:	f000 f9b1 	bl	8004268 <__retarget_lock_release_recursive>
 8003f06:	4628      	mov	r0, r5
 8003f08:	bd70      	pop	{r4, r5, r6, pc}
 8003f0a:	2b00      	cmp	r3, #0
 8003f0c:	da04      	bge.n	8003f18 <_puts_r+0x84>
 8003f0e:	69a2      	ldr	r2, [r4, #24]
 8003f10:	429a      	cmp	r2, r3
 8003f12:	dc06      	bgt.n	8003f22 <_puts_r+0x8e>
 8003f14:	290a      	cmp	r1, #10
 8003f16:	d004      	beq.n	8003f22 <_puts_r+0x8e>
 8003f18:	6823      	ldr	r3, [r4, #0]
 8003f1a:	1c5a      	adds	r2, r3, #1
 8003f1c:	6022      	str	r2, [r4, #0]
 8003f1e:	7019      	strb	r1, [r3, #0]
 8003f20:	e7cf      	b.n	8003ec2 <_puts_r+0x2e>
 8003f22:	4622      	mov	r2, r4
 8003f24:	4628      	mov	r0, r5
 8003f26:	f000 f882 	bl	800402e <__swbuf_r>
 8003f2a:	3001      	adds	r0, #1
 8003f2c:	d1c9      	bne.n	8003ec2 <_puts_r+0x2e>
 8003f2e:	e7df      	b.n	8003ef0 <_puts_r+0x5c>
 8003f30:	6823      	ldr	r3, [r4, #0]
 8003f32:	250a      	movs	r5, #10
 8003f34:	1c5a      	adds	r2, r3, #1
 8003f36:	6022      	str	r2, [r4, #0]
 8003f38:	701d      	strb	r5, [r3, #0]
 8003f3a:	e7db      	b.n	8003ef4 <_puts_r+0x60>

08003f3c <puts>:
 8003f3c:	4b02      	ldr	r3, [pc, #8]	; (8003f48 <puts+0xc>)
 8003f3e:	4601      	mov	r1, r0
 8003f40:	6818      	ldr	r0, [r3, #0]
 8003f42:	f7ff bfa7 	b.w	8003e94 <_puts_r>
 8003f46:	bf00      	nop
 8003f48:	200000b4 	.word	0x200000b4

08003f4c <siscanf>:
 8003f4c:	b40e      	push	{r1, r2, r3}
 8003f4e:	b510      	push	{r4, lr}
 8003f50:	b09f      	sub	sp, #124	; 0x7c
 8003f52:	ac21      	add	r4, sp, #132	; 0x84
 8003f54:	f44f 7101 	mov.w	r1, #516	; 0x204
 8003f58:	f854 2b04 	ldr.w	r2, [r4], #4
 8003f5c:	9201      	str	r2, [sp, #4]
 8003f5e:	f8ad 101c 	strh.w	r1, [sp, #28]
 8003f62:	9004      	str	r0, [sp, #16]
 8003f64:	9008      	str	r0, [sp, #32]
 8003f66:	f7fc f96b 	bl	8000240 <strlen>
 8003f6a:	4b0c      	ldr	r3, [pc, #48]	; (8003f9c <siscanf+0x50>)
 8003f6c:	9005      	str	r0, [sp, #20]
 8003f6e:	9009      	str	r0, [sp, #36]	; 0x24
 8003f70:	930d      	str	r3, [sp, #52]	; 0x34
 8003f72:	480b      	ldr	r0, [pc, #44]	; (8003fa0 <siscanf+0x54>)
 8003f74:	9a01      	ldr	r2, [sp, #4]
 8003f76:	6800      	ldr	r0, [r0, #0]
 8003f78:	9403      	str	r4, [sp, #12]
 8003f7a:	2300      	movs	r3, #0
 8003f7c:	9311      	str	r3, [sp, #68]	; 0x44
 8003f7e:	9316      	str	r3, [sp, #88]	; 0x58
 8003f80:	f64f 73ff 	movw	r3, #65535	; 0xffff
 8003f84:	f8ad 301e 	strh.w	r3, [sp, #30]
 8003f88:	a904      	add	r1, sp, #16
 8003f8a:	4623      	mov	r3, r4
 8003f8c:	f000 fac0 	bl	8004510 <__ssvfiscanf_r>
 8003f90:	b01f      	add	sp, #124	; 0x7c
 8003f92:	e8bd 4010 	ldmia.w	sp!, {r4, lr}
 8003f96:	b003      	add	sp, #12
 8003f98:	4770      	bx	lr
 8003f9a:	bf00      	nop
 8003f9c:	08003fc7 	.word	0x08003fc7
 8003fa0:	200000b4 	.word	0x200000b4

08003fa4 <__sread>:
 8003fa4:	b510      	push	{r4, lr}
 8003fa6:	460c      	mov	r4, r1
 8003fa8:	f9b1 100e 	ldrsh.w	r1, [r1, #14]
 8003fac:	f000 f90c 	bl	80041c8 <_read_r>
 8003fb0:	2800      	cmp	r0, #0
 8003fb2:	bfab      	itete	ge
 8003fb4:	6d63      	ldrge	r3, [r4, #84]	; 0x54
 8003fb6:	89a3      	ldrhlt	r3, [r4, #12]
 8003fb8:	181b      	addge	r3, r3, r0
 8003fba:	f423 5380 	biclt.w	r3, r3, #4096	; 0x1000
 8003fbe:	bfac      	ite	ge
 8003fc0:	6563      	strge	r3, [r4, #84]	; 0x54
 8003fc2:	81a3      	strhlt	r3, [r4, #12]
 8003fc4:	bd10      	pop	{r4, pc}

08003fc6 <__seofread>:
 8003fc6:	2000      	movs	r0, #0
 8003fc8:	4770      	bx	lr

08003fca <__swrite>:
 8003fca:	e92d 41f0 	stmdb	sp!, {r4, r5, r6, r7, r8, lr}
 8003fce:	461f      	mov	r7, r3
 8003fd0:	898b      	ldrh	r3, [r1, #12]
 8003fd2:	05db      	lsls	r3, r3, #23
 8003fd4:	4605      	mov	r5, r0
 8003fd6:	460c      	mov	r4, r1
 8003fd8:	4616      	mov	r6, r2
 8003fda:	d505      	bpl.n	8003fe8 <__swrite+0x1e>
 8003fdc:	f9b1 100e 	ldrsh.w	r1, [r1, #14]
 8003fe0:	2302      	movs	r3, #2
 8003fe2:	2200      	movs	r2, #0
 8003fe4:	f000 f8de 	bl	80041a4 <_lseek_r>
 8003fe8:	89a3      	ldrh	r3, [r4, #12]
 8003fea:	f9b4 100e 	ldrsh.w	r1, [r4, #14]
 8003fee:	f423 5380 	bic.w	r3, r3, #4096	; 0x1000
 8003ff2:	81a3      	strh	r3, [r4, #12]
 8003ff4:	4632      	mov	r2, r6
 8003ff6:	463b      	mov	r3, r7
 8003ff8:	4628      	mov	r0, r5
 8003ffa:	e8bd 41f0 	ldmia.w	sp!, {r4, r5, r6, r7, r8, lr}
 8003ffe:	f000 b8f5 	b.w	80041ec <_write_r>

08004002 <__sseek>:
 8004002:	b510      	push	{r4, lr}
 8004004:	460c      	mov	r4, r1
 8004006:	f9b1 100e 	ldrsh.w	r1, [r1, #14]
 800400a:	f000 f8cb 	bl	80041a4 <_lseek_r>
 800400e:	1c43      	adds	r3, r0, #1
 8004010:	89a3      	ldrh	r3, [r4, #12]
 8004012:	bf15      	itete	ne
 8004014:	6560      	strne	r0, [r4, #84]	; 0x54
 8004016:	f423 5380 	biceq.w	r3, r3, #4096	; 0x1000
 800401a:	f443 5380 	orrne.w	r3, r3, #4096	; 0x1000
 800401e:	81a3      	strheq	r3, [r4, #12]
 8004020:	bf18      	it	ne
 8004022:	81a3      	strhne	r3, [r4, #12]
 8004024:	bd10      	pop	{r4, pc}

08004026 <__sclose>:
 8004026:	f9b1 100e 	ldrsh.w	r1, [r1, #14]
 800402a:	f000 b8ab 	b.w	8004184 <_close_r>

0800402e <__swbuf_r>:
 800402e:	b5f8      	push	{r3, r4, r5, r6, r7, lr}
 8004030:	460e      	mov	r6, r1
 8004032:	4614      	mov	r4, r2
 8004034:	4605      	mov	r5, r0
 8004036:	b118      	cbz	r0, 8004040 <__swbuf_r+0x12>
 8004038:	6a03      	ldr	r3, [r0, #32]
 800403a:	b90b      	cbnz	r3, 8004040 <__swbuf_r+0x12>
 800403c:	f7ff fee2 	bl	8003e04 <__sinit>
 8004040:	69a3      	ldr	r3, [r4, #24]
 8004042:	60a3      	str	r3, [r4, #8]
 8004044:	89a3      	ldrh	r3, [r4, #12]
 8004046:	071a      	lsls	r2, r3, #28
 8004048:	d525      	bpl.n	8004096 <__swbuf_r+0x68>
 800404a:	6923      	ldr	r3, [r4, #16]
 800404c:	b31b      	cbz	r3, 8004096 <__swbuf_r+0x68>
 800404e:	6823      	ldr	r3, [r4, #0]
 8004050:	6922      	ldr	r2, [r4, #16]
 8004052:	1a98      	subs	r0, r3, r2
 8004054:	6963      	ldr	r3, [r4, #20]
 8004056:	b2f6      	uxtb	r6, r6
 8004058:	4283      	cmp	r3, r0
 800405a:	4637      	mov	r7, r6
 800405c:	dc04      	bgt.n	8004068 <__swbuf_r+0x3a>
 800405e:	4621      	mov	r1, r4
 8004060:	4628      	mov	r0, r5
 8004062:	f001 f875 	bl	8005150 <_fflush_r>
 8004066:	b9e0      	cbnz	r0, 80040a2 <__swbuf_r+0x74>
 8004068:	68a3      	ldr	r3, [r4, #8]
 800406a:	3b01      	subs	r3, #1
 800406c:	60a3      	str	r3, [r4, #8]
 800406e:	6823      	ldr	r3, [r4, #0]
 8004070:	1c5a      	adds	r2, r3, #1
 8004072:	6022      	str	r2, [r4, #0]
 8004074:	701e      	strb	r6, [r3, #0]
 8004076:	6962      	ldr	r2, [r4, #20]
 8004078:	1c43      	adds	r3, r0, #1
 800407a:	429a      	cmp	r2, r3
 800407c:	d004      	beq.n	8004088 <__swbuf_r+0x5a>
 800407e:	89a3      	ldrh	r3, [r4, #12]
 8004080:	07db      	lsls	r3, r3, #31
 8004082:	d506      	bpl.n	8004092 <__swbuf_r+0x64>
 8004084:	2e0a      	cmp	r6, #10
 8004086:	d104      	bne.n	8004092 <__swbuf_r+0x64>
 8004088:	4621      	mov	r1, r4
 800408a:	4628      	mov	r0, r5
 800408c:	f001 f860 	bl	8005150 <_fflush_r>
 8004090:	b938      	cbnz	r0, 80040a2 <__swbuf_r+0x74>
 8004092:	4638      	mov	r0, r7
 8004094:	bdf8      	pop	{r3, r4, r5, r6, r7, pc}
 8004096:	4621      	mov	r1, r4
 8004098:	4628      	mov	r0, r5
 800409a:	f000 f805 	bl	80040a8 <__swsetup_r>
 800409e:	2800      	cmp	r0, #0
 80040a0:	d0d5      	beq.n	800404e <__swbuf_r+0x20>
 80040a2:	f04f 37ff 	mov.w	r7, #4294967295
 80040a6:	e7f4      	b.n	8004092 <__swbuf_r+0x64>

080040a8 <__swsetup_r>:
 80040a8:	b538      	push	{r3, r4, r5, lr}
 80040aa:	4b2a      	ldr	r3, [pc, #168]	; (8004154 <__swsetup_r+0xac>)
 80040ac:	4605      	mov	r5, r0
 80040ae:	6818      	ldr	r0, [r3, #0]
 80040b0:	460c      	mov	r4, r1
 80040b2:	b118      	cbz	r0, 80040bc <__swsetup_r+0x14>
 80040b4:	6a03      	ldr	r3, [r0, #32]
 80040b6:	b90b      	cbnz	r3, 80040bc <__swsetup_r+0x14>
 80040b8:	f7ff fea4 	bl	8003e04 <__sinit>
 80040bc:	89a3      	ldrh	r3, [r4, #12]
 80040be:	f9b4 200c 	ldrsh.w	r2, [r4, #12]
 80040c2:	0718      	lsls	r0, r3, #28
 80040c4:	d422      	bmi.n	800410c <__swsetup_r+0x64>
 80040c6:	06d9      	lsls	r1, r3, #27
 80040c8:	d407      	bmi.n	80040da <__swsetup_r+0x32>
 80040ca:	2309      	movs	r3, #9
 80040cc:	602b      	str	r3, [r5, #0]
 80040ce:	f042 0340 	orr.w	r3, r2, #64	; 0x40
 80040d2:	81a3      	strh	r3, [r4, #12]
 80040d4:	f04f 30ff 	mov.w	r0, #4294967295
 80040d8:	e034      	b.n	8004144 <__swsetup_r+0x9c>
 80040da:	0758      	lsls	r0, r3, #29
 80040dc:	d512      	bpl.n	8004104 <__swsetup_r+0x5c>
 80040de:	6b61      	ldr	r1, [r4, #52]	; 0x34
 80040e0:	b141      	cbz	r1, 80040f4 <__swsetup_r+0x4c>
 80040e2:	f104 0344 	add.w	r3, r4, #68	; 0x44
 80040e6:	4299      	cmp	r1, r3
 80040e8:	d002      	beq.n	80040f0 <__swsetup_r+0x48>
 80040ea:	4628      	mov	r0, r5
 80040ec:	f000 f8be 	bl	800426c <_free_r>
 80040f0:	2300      	movs	r3, #0
 80040f2:	6363      	str	r3, [r4, #52]	; 0x34
 80040f4:	89a3      	ldrh	r3, [r4, #12]
 80040f6:	f023 0324 	bic.w	r3, r3, #36	; 0x24
 80040fa:	81a3      	strh	r3, [r4, #12]
 80040fc:	2300      	movs	r3, #0
 80040fe:	6063      	str	r3, [r4, #4]
 8004100:	6923      	ldr	r3, [r4, #16]
 8004102:	6023      	str	r3, [r4, #0]
 8004104:	89a3      	ldrh	r3, [r4, #12]
 8004106:	f043 0308 	orr.w	r3, r3, #8
 800410a:	81a3      	strh	r3, [r4, #12]
 800410c:	6923      	ldr	r3, [r4, #16]
 800410e:	b94b      	cbnz	r3, 8004124 <__swsetup_r+0x7c>
 8004110:	89a3      	ldrh	r3, [r4, #12]
 8004112:	f403 7320 	and.w	r3, r3, #640	; 0x280
 8004116:	f5b3 7f00 	cmp.w	r3, #512	; 0x200
 800411a:	d003      	beq.n	8004124 <__swsetup_r+0x7c>
 800411c:	4621      	mov	r1, r4
 800411e:	4628      	mov	r0, r5
 8004120:	f001 f864 	bl	80051ec <__smakebuf_r>
 8004124:	89a0      	ldrh	r0, [r4, #12]
 8004126:	f9b4 200c 	ldrsh.w	r2, [r4, #12]
 800412a:	f010 0301 	ands.w	r3, r0, #1
 800412e:	d00a      	beq.n	8004146 <__swsetup_r+0x9e>
 8004130:	2300      	movs	r3, #0
 8004132:	60a3      	str	r3, [r4, #8]
 8004134:	6963      	ldr	r3, [r4, #20]
 8004136:	425b      	negs	r3, r3
 8004138:	61a3      	str	r3, [r4, #24]
 800413a:	6923      	ldr	r3, [r4, #16]
 800413c:	b943      	cbnz	r3, 8004150 <__swsetup_r+0xa8>
 800413e:	f010 0080 	ands.w	r0, r0, #128	; 0x80
 8004142:	d1c4      	bne.n	80040ce <__swsetup_r+0x26>
 8004144:	bd38      	pop	{r3, r4, r5, pc}
 8004146:	0781      	lsls	r1, r0, #30
 8004148:	bf58      	it	pl
 800414a:	6963      	ldrpl	r3, [r4, #20]
 800414c:	60a3      	str	r3, [r4, #8]
 800414e:	e7f4      	b.n	800413a <__swsetup_r+0x92>
 8004150:	2000      	movs	r0, #0
 8004152:	e7f7      	b.n	8004144 <__swsetup_r+0x9c>
 8004154:	200000b4 	.word	0x200000b4

08004158 <memset>:
 8004158:	4402      	add	r2, r0
 800415a:	4603      	mov	r3, r0
 800415c:	4293      	cmp	r3, r2
 800415e:	d100      	bne.n	8004162 <memset+0xa>
 8004160:	4770      	bx	lr
 8004162:	f803 1b01 	strb.w	r1, [r3], #1
 8004166:	e7f9      	b.n	800415c <memset+0x4>

08004168 <strchr>:
 8004168:	b2c9      	uxtb	r1, r1
 800416a:	4603      	mov	r3, r0
 800416c:	f810 2b01 	ldrb.w	r2, [r0], #1
 8004170:	b11a      	cbz	r2, 800417a <strchr+0x12>
 8004172:	428a      	cmp	r2, r1
 8004174:	d1f9      	bne.n	800416a <strchr+0x2>
 8004176:	4618      	mov	r0, r3
 8004178:	4770      	bx	lr
 800417a:	2900      	cmp	r1, #0
 800417c:	bf18      	it	ne
 800417e:	2300      	movne	r3, #0
 8004180:	e7f9      	b.n	8004176 <strchr+0xe>
	...

08004184 <_close_r>:
 8004184:	b538      	push	{r3, r4, r5, lr}
 8004186:	4d06      	ldr	r5, [pc, #24]	; (80041a0 <_close_r+0x1c>)
 8004188:	2300      	movs	r3, #0
 800418a:	4604      	mov	r4, r0
 800418c:	4608      	mov	r0, r1
 800418e:	602b      	str	r3, [r5, #0]
 8004190:	f7fc fca4 	bl	8000adc <_close>
 8004194:	1c43      	adds	r3, r0, #1
 8004196:	d102      	bne.n	800419e <_close_r+0x1a>
 8004198:	682b      	ldr	r3, [r5, #0]
 800419a:	b103      	cbz	r3, 800419e <_close_r+0x1a>
 800419c:	6023      	str	r3, [r4, #0]
 800419e:	bd38      	pop	{r3, r4, r5, pc}
 80041a0:	20003330 	.word	0x20003330

080041a4 <_lseek_r>:
 80041a4:	b538      	push	{r3, r4, r5, lr}
 80041a6:	4d07      	ldr	r5, [pc, #28]	; (80041c4 <_lseek_r+0x20>)
 80041a8:	4604      	mov	r4, r0
 80041aa:	4608      	mov	r0, r1
 80041ac:	4611      	mov	r1, r2
 80041ae:	2200      	movs	r2, #0
 80041b0:	602a      	str	r2, [r5, #0]
 80041b2:	461a      	mov	r2, r3
 80041b4:	f7fc fc9c 	bl	8000af0 <_lseek>
 80041b8:	1c43      	adds	r3, r0, #1
 80041ba:	d102      	bne.n	80041c2 <_lseek_r+0x1e>
 80041bc:	682b      	ldr	r3, [r5, #0]
 80041be:	b103      	cbz	r3, 80041c2 <_lseek_r+0x1e>
 80041c0:	6023      	str	r3, [r4, #0]
 80041c2:	bd38      	pop	{r3, r4, r5, pc}
 80041c4:	20003330 	.word	0x20003330

080041c8 <_read_r>:
 80041c8:	b538      	push	{r3, r4, r5, lr}
 80041ca:	4d07      	ldr	r5, [pc, #28]	; (80041e8 <_read_r+0x20>)
 80041cc:	4604      	mov	r4, r0
 80041ce:	4608      	mov	r0, r1
 80041d0:	4611      	mov	r1, r2
 80041d2:	2200      	movs	r2, #0
 80041d4:	602a      	str	r2, [r5, #0]
 80041d6:	461a      	mov	r2, r3
 80041d8:	f7fc fc64 	bl	8000aa4 <_read>
 80041dc:	1c43      	adds	r3, r0, #1
 80041de:	d102      	bne.n	80041e6 <_read_r+0x1e>
 80041e0:	682b      	ldr	r3, [r5, #0]
 80041e2:	b103      	cbz	r3, 80041e6 <_read_r+0x1e>
 80041e4:	6023      	str	r3, [r4, #0]
 80041e6:	bd38      	pop	{r3, r4, r5, pc}
 80041e8:	20003330 	.word	0x20003330

080041ec <_write_r>:
 80041ec:	b538      	push	{r3, r4, r5, lr}
 80041ee:	4d07      	ldr	r5, [pc, #28]	; (800420c <_write_r+0x20>)
 80041f0:	4604      	mov	r4, r0
 80041f2:	4608      	mov	r0, r1
 80041f4:	4611      	mov	r1, r2
 80041f6:	2200      	movs	r2, #0
 80041f8:	602a      	str	r2, [r5, #0]
 80041fa:	461a      	mov	r2, r3
 80041fc:	f7fc fc60 	bl	8000ac0 <_write>
 8004200:	1c43      	adds	r3, r0, #1
 8004202:	d102      	bne.n	800420a <_write_r+0x1e>
 8004204:	682b      	ldr	r3, [r5, #0]
 8004206:	b103      	cbz	r3, 800420a <_write_r+0x1e>
 8004208:	6023      	str	r3, [r4, #0]
 800420a:	bd38      	pop	{r3, r4, r5, pc}
 800420c:	20003330 	.word	0x20003330

08004210 <__errno>:
 8004210:	4b01      	ldr	r3, [pc, #4]	; (8004218 <__errno+0x8>)
 8004212:	6818      	ldr	r0, [r3, #0]
 8004214:	4770      	bx	lr
 8004216:	bf00      	nop
 8004218:	200000b4 	.word	0x200000b4

0800421c <__libc_init_array>:
 800421c:	b570      	push	{r4, r5, r6, lr}
 800421e:	4d0d      	ldr	r5, [pc, #52]	; (8004254 <__libc_init_array+0x38>)
 8004220:	4c0d      	ldr	r4, [pc, #52]	; (8004258 <__libc_init_array+0x3c>)
 8004222:	1b64      	subs	r4, r4, r5
 8004224:	10a4      	asrs	r4, r4, #2
 8004226:	2600      	movs	r6, #0
 8004228:	42a6      	cmp	r6, r4
 800422a:	d109      	bne.n	8004240 <__libc_init_array+0x24>
 800422c:	4d0b      	ldr	r5, [pc, #44]	; (800425c <__libc_init_array+0x40>)
 800422e:	4c0c      	ldr	r4, [pc, #48]	; (8004260 <__libc_init_array+0x44>)
 8004230:	f001 f9fc 	bl	800562c <_init>
 8004234:	1b64      	subs	r4, r4, r5
 8004236:	10a4      	asrs	r4, r4, #2
 8004238:	2600      	movs	r6, #0
 800423a:	42a6      	cmp	r6, r4
 800423c:	d105      	bne.n	800424a <__libc_init_array+0x2e>
 800423e:	bd70      	pop	{r4, r5, r6, pc}
 8004240:	f855 3b04 	ldr.w	r3, [r5], #4
 8004244:	4798      	blx	r3
 8004246:	3601      	adds	r6, #1
 8004248:	e7ee      	b.n	8004228 <__libc_init_array+0xc>
 800424a:	f855 3b04 	ldr.w	r3, [r5], #4
 800424e:	4798      	blx	r3
 8004250:	3601      	adds	r6, #1
 8004252:	e7f2      	b.n	800423a <__libc_init_array+0x1e>
 8004254:	08005a58 	.word	0x08005a58
 8004258:	08005a58 	.word	0x08005a58
 800425c:	08005a58 	.word	0x08005a58
 8004260:	08005a5c 	.word	0x08005a5c

08004264 <__retarget_lock_init_recursive>:
 8004264:	4770      	bx	lr

08004266 <__retarget_lock_acquire_recursive>:
 8004266:	4770      	bx	lr

08004268 <__retarget_lock_release_recursive>:
 8004268:	4770      	bx	lr
	...

0800426c <_free_r>:
 800426c:	b537      	push	{r0, r1, r2, r4, r5, lr}
 800426e:	2900      	cmp	r1, #0
 8004270:	d044      	beq.n	80042fc <_free_r+0x90>
 8004272:	f851 3c04 	ldr.w	r3, [r1, #-4]
 8004276:	9001      	str	r0, [sp, #4]
 8004278:	2b00      	cmp	r3, #0
 800427a:	f1a1 0404 	sub.w	r4, r1, #4
 800427e:	bfb8      	it	lt
 8004280:	18e4      	addlt	r4, r4, r3
 8004282:	f000 f8df 	bl	8004444 <__malloc_lock>
 8004286:	4a1e      	ldr	r2, [pc, #120]	; (8004300 <_free_r+0x94>)
 8004288:	9801      	ldr	r0, [sp, #4]
 800428a:	6813      	ldr	r3, [r2, #0]
 800428c:	b933      	cbnz	r3, 800429c <_free_r+0x30>
 800428e:	6063      	str	r3, [r4, #4]
 8004290:	6014      	str	r4, [r2, #0]
 8004292:	b003      	add	sp, #12
 8004294:	e8bd 4030 	ldmia.w	sp!, {r4, r5, lr}
 8004298:	f000 b8da 	b.w	8004450 <__malloc_unlock>
 800429c:	42a3      	cmp	r3, r4
 800429e:	d908      	bls.n	80042b2 <_free_r+0x46>
 80042a0:	6825      	ldr	r5, [r4, #0]
 80042a2:	1961      	adds	r1, r4, r5
 80042a4:	428b      	cmp	r3, r1
 80042a6:	bf01      	itttt	eq
 80042a8:	6819      	ldreq	r1, [r3, #0]
 80042aa:	685b      	ldreq	r3, [r3, #4]
 80042ac:	1949      	addeq	r1, r1, r5
 80042ae:	6021      	streq	r1, [r4, #0]
 80042b0:	e7ed      	b.n	800428e <_free_r+0x22>
 80042b2:	461a      	mov	r2, r3
 80042b4:	685b      	ldr	r3, [r3, #4]
 80042b6:	b10b      	cbz	r3, 80042bc <_free_r+0x50>
 80042b8:	42a3      	cmp	r3, r4
 80042ba:	d9fa      	bls.n	80042b2 <_free_r+0x46>
 80042bc:	6811      	ldr	r1, [r2, #0]
 80042be:	1855      	adds	r5, r2, r1
 80042c0:	42a5      	cmp	r5, r4
 80042c2:	d10b      	bne.n	80042dc <_free_r+0x70>
 80042c4:	6824      	ldr	r4, [r4, #0]
 80042c6:	4421      	add	r1, r4
 80042c8:	1854      	adds	r4, r2, r1
 80042ca:	42a3      	cmp	r3, r4
 80042cc:	6011      	str	r1, [r2, #0]
 80042ce:	d1e0      	bne.n	8004292 <_free_r+0x26>
 80042d0:	681c      	ldr	r4, [r3, #0]
 80042d2:	685b      	ldr	r3, [r3, #4]
 80042d4:	6053      	str	r3, [r2, #4]
 80042d6:	440c      	add	r4, r1
 80042d8:	6014      	str	r4, [r2, #0]
 80042da:	e7da      	b.n	8004292 <_free_r+0x26>
 80042dc:	d902      	bls.n	80042e4 <_free_r+0x78>
 80042de:	230c      	movs	r3, #12
 80042e0:	6003      	str	r3, [r0, #0]
 80042e2:	e7d6      	b.n	8004292 <_free_r+0x26>
 80042e4:	6825      	ldr	r5, [r4, #0]
 80042e6:	1961      	adds	r1, r4, r5
 80042e8:	428b      	cmp	r3, r1
 80042ea:	bf04      	itt	eq
 80042ec:	6819      	ldreq	r1, [r3, #0]
 80042ee:	685b      	ldreq	r3, [r3, #4]
 80042f0:	6063      	str	r3, [r4, #4]
 80042f2:	bf04      	itt	eq
 80042f4:	1949      	addeq	r1, r1, r5
 80042f6:	6021      	streq	r1, [r4, #0]
 80042f8:	6054      	str	r4, [r2, #4]
 80042fa:	e7ca      	b.n	8004292 <_free_r+0x26>
 80042fc:	b003      	add	sp, #12
 80042fe:	bd30      	pop	{r4, r5, pc}
 8004300:	20003338 	.word	0x20003338

08004304 <sbrk_aligned>:
 8004304:	b570      	push	{r4, r5, r6, lr}
 8004306:	4e0e      	ldr	r6, [pc, #56]	; (8004340 <sbrk_aligned+0x3c>)
 8004308:	460c      	mov	r4, r1
 800430a:	6831      	ldr	r1, [r6, #0]
 800430c:	4605      	mov	r5, r0
 800430e:	b911      	cbnz	r1, 8004316 <sbrk_aligned+0x12>
 8004310:	f001 f83e 	bl	8005390 <_sbrk_r>
 8004314:	6030      	str	r0, [r6, #0]
 8004316:	4621      	mov	r1, r4
 8004318:	4628      	mov	r0, r5
 800431a:	f001 f839 	bl	8005390 <_sbrk_r>
 800431e:	1c43      	adds	r3, r0, #1
 8004320:	d00a      	beq.n	8004338 <sbrk_aligned+0x34>
 8004322:	1cc4      	adds	r4, r0, #3
 8004324:	f024 0403 	bic.w	r4, r4, #3
 8004328:	42a0      	cmp	r0, r4
 800432a:	d007      	beq.n	800433c <sbrk_aligned+0x38>
 800432c:	1a21      	subs	r1, r4, r0
 800432e:	4628      	mov	r0, r5
 8004330:	f001 f82e 	bl	8005390 <_sbrk_r>
 8004334:	3001      	adds	r0, #1
 8004336:	d101      	bne.n	800433c <sbrk_aligned+0x38>
 8004338:	f04f 34ff 	mov.w	r4, #4294967295
 800433c:	4620      	mov	r0, r4
 800433e:	bd70      	pop	{r4, r5, r6, pc}
 8004340:	2000333c 	.word	0x2000333c

08004344 <_malloc_r>:
 8004344:	e92d 43f8 	stmdb	sp!, {r3, r4, r5, r6, r7, r8, r9, lr}
 8004348:	1ccd      	adds	r5, r1, #3
 800434a:	f025 0503 	bic.w	r5, r5, #3
 800434e:	3508      	adds	r5, #8
 8004350:	2d0c      	cmp	r5, #12
 8004352:	bf38      	it	cc
 8004354:	250c      	movcc	r5, #12
 8004356:	2d00      	cmp	r5, #0
 8004358:	4607      	mov	r7, r0
 800435a:	db01      	blt.n	8004360 <_malloc_r+0x1c>
 800435c:	42a9      	cmp	r1, r5
 800435e:	d905      	bls.n	800436c <_malloc_r+0x28>
 8004360:	230c      	movs	r3, #12
 8004362:	603b      	str	r3, [r7, #0]
 8004364:	2600      	movs	r6, #0
 8004366:	4630      	mov	r0, r6
 8004368:	e8bd 83f8 	ldmia.w	sp!, {r3, r4, r5, r6, r7, r8, r9, pc}
 800436c:	f8df 80d0 	ldr.w	r8, [pc, #208]	; 8004440 <_malloc_r+0xfc>
 8004370:	f000 f868 	bl	8004444 <__malloc_lock>
 8004374:	f8d8 3000 	ldr.w	r3, [r8]
 8004378:	461c      	mov	r4, r3
 800437a:	bb5c      	cbnz	r4, 80043d4 <_malloc_r+0x90>
 800437c:	4629      	mov	r1, r5
 800437e:	4638      	mov	r0, r7
 8004380:	f7ff ffc0 	bl	8004304 <sbrk_aligned>
 8004384:	1c43      	adds	r3, r0, #1
 8004386:	4604      	mov	r4, r0
 8004388:	d155      	bne.n	8004436 <_malloc_r+0xf2>
 800438a:	f8d8 4000 	ldr.w	r4, [r8]
 800438e:	4626      	mov	r6, r4
 8004390:	2e00      	cmp	r6, #0
 8004392:	d145      	bne.n	8004420 <_malloc_r+0xdc>
 8004394:	2c00      	cmp	r4, #0
 8004396:	d048      	beq.n	800442a <_malloc_r+0xe6>
 8004398:	6823      	ldr	r3, [r4, #0]
 800439a:	4631      	mov	r1, r6
 800439c:	4638      	mov	r0, r7
 800439e:	eb04 0903 	add.w	r9, r4, r3
 80043a2:	f000 fff5 	bl	8005390 <_sbrk_r>
 80043a6:	4581      	cmp	r9, r0
 80043a8:	d13f      	bne.n	800442a <_malloc_r+0xe6>
 80043aa:	6821      	ldr	r1, [r4, #0]
 80043ac:	1a6d      	subs	r5, r5, r1
 80043ae:	4629      	mov	r1, r5
 80043b0:	4638      	mov	r0, r7
 80043b2:	f7ff ffa7 	bl	8004304 <sbrk_aligned>
 80043b6:	3001      	adds	r0, #1
 80043b8:	d037      	beq.n	800442a <_malloc_r+0xe6>
 80043ba:	6823      	ldr	r3, [r4, #0]
 80043bc:	442b      	add	r3, r5
 80043be:	6023      	str	r3, [r4, #0]
 80043c0:	f8d8 3000 	ldr.w	r3, [r8]
 80043c4:	2b00      	cmp	r3, #0
 80043c6:	d038      	beq.n	800443a <_malloc_r+0xf6>
 80043c8:	685a      	ldr	r2, [r3, #4]
 80043ca:	42a2      	cmp	r2, r4
 80043cc:	d12b      	bne.n	8004426 <_malloc_r+0xe2>
 80043ce:	2200      	movs	r2, #0
 80043d0:	605a      	str	r2, [r3, #4]
 80043d2:	e00f      	b.n	80043f4 <_malloc_r+0xb0>
 80043d4:	6822      	ldr	r2, [r4, #0]
 80043d6:	1b52      	subs	r2, r2, r5
 80043d8:	d41f      	bmi.n	800441a <_malloc_r+0xd6>
 80043da:	2a0b      	cmp	r2, #11
 80043dc:	d917      	bls.n	800440e <_malloc_r+0xca>
 80043de:	1961      	adds	r1, r4, r5
 80043e0:	42a3      	cmp	r3, r4
 80043e2:	6025      	str	r5, [r4, #0]
 80043e4:	bf18      	it	ne
 80043e6:	6059      	strne	r1, [r3, #4]
 80043e8:	6863      	ldr	r3, [r4, #4]
 80043ea:	bf08      	it	eq
 80043ec:	f8c8 1000 	streq.w	r1, [r8]
 80043f0:	5162      	str	r2, [r4, r5]
 80043f2:	604b      	str	r3, [r1, #4]
 80043f4:	4638      	mov	r0, r7
 80043f6:	f104 060b 	add.w	r6, r4, #11
 80043fa:	f000 f829 	bl	8004450 <__malloc_unlock>
 80043fe:	f026 0607 	bic.w	r6, r6, #7
 8004402:	1d23      	adds	r3, r4, #4
 8004404:	1af2      	subs	r2, r6, r3
 8004406:	d0ae      	beq.n	8004366 <_malloc_r+0x22>
 8004408:	1b9b      	subs	r3, r3, r6
 800440a:	50a3      	str	r3, [r4, r2]
 800440c:	e7ab      	b.n	8004366 <_malloc_r+0x22>
 800440e:	42a3      	cmp	r3, r4
 8004410:	6862      	ldr	r2, [r4, #4]
 8004412:	d1dd      	bne.n	80043d0 <_malloc_r+0x8c>
 8004414:	f8c8 2000 	str.w	r2, [r8]
 8004418:	e7ec      	b.n	80043f4 <_malloc_r+0xb0>
 800441a:	4623      	mov	r3, r4
 800441c:	6864      	ldr	r4, [r4, #4]
 800441e:	e7ac      	b.n	800437a <_malloc_r+0x36>
 8004420:	4634      	mov	r4, r6
 8004422:	6876      	ldr	r6, [r6, #4]
 8004424:	e7b4      	b.n	8004390 <_malloc_r+0x4c>
 8004426:	4613      	mov	r3, r2
 8004428:	e7cc      	b.n	80043c4 <_malloc_r+0x80>
 800442a:	230c      	movs	r3, #12
 800442c:	603b      	str	r3, [r7, #0]
 800442e:	4638      	mov	r0, r7
 8004430:	f000 f80e 	bl	8004450 <__malloc_unlock>
 8004434:	e797      	b.n	8004366 <_malloc_r+0x22>
 8004436:	6025      	str	r5, [r4, #0]
 8004438:	e7dc      	b.n	80043f4 <_malloc_r+0xb0>
 800443a:	605b      	str	r3, [r3, #4]
 800443c:	deff      	udf	#255	; 0xff
 800443e:	bf00      	nop
 8004440:	20003338 	.word	0x20003338

08004444 <__malloc_lock>:
 8004444:	4801      	ldr	r0, [pc, #4]	; (800444c <__malloc_lock+0x8>)
 8004446:	f7ff bf0e 	b.w	8004266 <__retarget_lock_acquire_recursive>
 800444a:	bf00      	nop
 800444c:	20003334 	.word	0x20003334

08004450 <__malloc_unlock>:
 8004450:	4801      	ldr	r0, [pc, #4]	; (8004458 <__malloc_unlock+0x8>)
 8004452:	f7ff bf09 	b.w	8004268 <__retarget_lock_release_recursive>
 8004456:	bf00      	nop
 8004458:	20003334 	.word	0x20003334

0800445c <_sungetc_r>:
 800445c:	b538      	push	{r3, r4, r5, lr}
 800445e:	1c4b      	adds	r3, r1, #1
 8004460:	4614      	mov	r4, r2
 8004462:	d103      	bne.n	800446c <_sungetc_r+0x10>
 8004464:	f04f 35ff 	mov.w	r5, #4294967295
 8004468:	4628      	mov	r0, r5
 800446a:	bd38      	pop	{r3, r4, r5, pc}
 800446c:	8993      	ldrh	r3, [r2, #12]
 800446e:	f023 0320 	bic.w	r3, r3, #32
 8004472:	8193      	strh	r3, [r2, #12]
 8004474:	6b63      	ldr	r3, [r4, #52]	; 0x34
 8004476:	6852      	ldr	r2, [r2, #4]
 8004478:	b2cd      	uxtb	r5, r1
 800447a:	b18b      	cbz	r3, 80044a0 <_sungetc_r+0x44>
 800447c:	6ba3      	ldr	r3, [r4, #56]	; 0x38
 800447e:	4293      	cmp	r3, r2
 8004480:	dd08      	ble.n	8004494 <_sungetc_r+0x38>
 8004482:	6823      	ldr	r3, [r4, #0]
 8004484:	1e5a      	subs	r2, r3, #1
 8004486:	6022      	str	r2, [r4, #0]
 8004488:	f803 5c01 	strb.w	r5, [r3, #-1]
 800448c:	6863      	ldr	r3, [r4, #4]
 800448e:	3301      	adds	r3, #1
 8004490:	6063      	str	r3, [r4, #4]
 8004492:	e7e9      	b.n	8004468 <_sungetc_r+0xc>
 8004494:	4621      	mov	r1, r4
 8004496:	f000 ff1e 	bl	80052d6 <__submore>
 800449a:	2800      	cmp	r0, #0
 800449c:	d0f1      	beq.n	8004482 <_sungetc_r+0x26>
 800449e:	e7e1      	b.n	8004464 <_sungetc_r+0x8>
 80044a0:	6921      	ldr	r1, [r4, #16]
 80044a2:	6823      	ldr	r3, [r4, #0]
 80044a4:	b151      	cbz	r1, 80044bc <_sungetc_r+0x60>
 80044a6:	4299      	cmp	r1, r3
 80044a8:	d208      	bcs.n	80044bc <_sungetc_r+0x60>
 80044aa:	f813 1c01 	ldrb.w	r1, [r3, #-1]
 80044ae:	42a9      	cmp	r1, r5
 80044b0:	d104      	bne.n	80044bc <_sungetc_r+0x60>
 80044b2:	3b01      	subs	r3, #1
 80044b4:	3201      	adds	r2, #1
 80044b6:	6023      	str	r3, [r4, #0]
 80044b8:	6062      	str	r2, [r4, #4]
 80044ba:	e7d5      	b.n	8004468 <_sungetc_r+0xc>
 80044bc:	e9c4 320f 	strd	r3, r2, [r4, #60]	; 0x3c
 80044c0:	f104 0344 	add.w	r3, r4, #68	; 0x44
 80044c4:	6363      	str	r3, [r4, #52]	; 0x34
 80044c6:	2303      	movs	r3, #3
 80044c8:	63a3      	str	r3, [r4, #56]	; 0x38
 80044ca:	4623      	mov	r3, r4
 80044cc:	f803 5f46 	strb.w	r5, [r3, #70]!
 80044d0:	6023      	str	r3, [r4, #0]
 80044d2:	2301      	movs	r3, #1
 80044d4:	e7dc      	b.n	8004490 <_sungetc_r+0x34>

080044d6 <__ssrefill_r>:
 80044d6:	b510      	push	{r4, lr}
 80044d8:	460c      	mov	r4, r1
 80044da:	6b49      	ldr	r1, [r1, #52]	; 0x34
 80044dc:	b169      	cbz	r1, 80044fa <__ssrefill_r+0x24>
 80044de:	f104 0344 	add.w	r3, r4, #68	; 0x44
 80044e2:	4299      	cmp	r1, r3
 80044e4:	d001      	beq.n	80044ea <__ssrefill_r+0x14>
 80044e6:	f7ff fec1 	bl	800426c <_free_r>
 80044ea:	6c23      	ldr	r3, [r4, #64]	; 0x40
 80044ec:	6063      	str	r3, [r4, #4]
 80044ee:	2000      	movs	r0, #0
 80044f0:	6360      	str	r0, [r4, #52]	; 0x34
 80044f2:	b113      	cbz	r3, 80044fa <__ssrefill_r+0x24>
 80044f4:	6be3      	ldr	r3, [r4, #60]	; 0x3c
 80044f6:	6023      	str	r3, [r4, #0]
 80044f8:	bd10      	pop	{r4, pc}
 80044fa:	6923      	ldr	r3, [r4, #16]
 80044fc:	6023      	str	r3, [r4, #0]
 80044fe:	2300      	movs	r3, #0
 8004500:	6063      	str	r3, [r4, #4]
 8004502:	89a3      	ldrh	r3, [r4, #12]
 8004504:	f043 0320 	orr.w	r3, r3, #32
 8004508:	81a3      	strh	r3, [r4, #12]
 800450a:	f04f 30ff 	mov.w	r0, #4294967295
 800450e:	e7f3      	b.n	80044f8 <__ssrefill_r+0x22>

08004510 <__ssvfiscanf_r>:
 8004510:	e92d 47f0 	stmdb	sp!, {r4, r5, r6, r7, r8, r9, sl, lr}
 8004514:	460c      	mov	r4, r1
 8004516:	f5ad 7d22 	sub.w	sp, sp, #648	; 0x288
 800451a:	2100      	movs	r1, #0
 800451c:	e9cd 1144 	strd	r1, r1, [sp, #272]	; 0x110
 8004520:	49a6      	ldr	r1, [pc, #664]	; (80047bc <__ssvfiscanf_r+0x2ac>)
 8004522:	91a0      	str	r1, [sp, #640]	; 0x280
 8004524:	f10d 0804 	add.w	r8, sp, #4
 8004528:	49a5      	ldr	r1, [pc, #660]	; (80047c0 <__ssvfiscanf_r+0x2b0>)
 800452a:	4fa6      	ldr	r7, [pc, #664]	; (80047c4 <__ssvfiscanf_r+0x2b4>)
 800452c:	f8df 9298 	ldr.w	r9, [pc, #664]	; 80047c8 <__ssvfiscanf_r+0x2b8>
 8004530:	f8cd 8118 	str.w	r8, [sp, #280]	; 0x118
 8004534:	4606      	mov	r6, r0
 8004536:	91a1      	str	r1, [sp, #644]	; 0x284
 8004538:	9300      	str	r3, [sp, #0]
 800453a:	7813      	ldrb	r3, [r2, #0]
 800453c:	2b00      	cmp	r3, #0
 800453e:	f000 815a 	beq.w	80047f6 <__ssvfiscanf_r+0x2e6>
 8004542:	5cf9      	ldrb	r1, [r7, r3]
 8004544:	f011 0108 	ands.w	r1, r1, #8
 8004548:	f102 0501 	add.w	r5, r2, #1
 800454c:	d019      	beq.n	8004582 <__ssvfiscanf_r+0x72>
 800454e:	6863      	ldr	r3, [r4, #4]
 8004550:	2b00      	cmp	r3, #0
 8004552:	dd0f      	ble.n	8004574 <__ssvfiscanf_r+0x64>
 8004554:	6823      	ldr	r3, [r4, #0]
 8004556:	781a      	ldrb	r2, [r3, #0]
 8004558:	5cba      	ldrb	r2, [r7, r2]
 800455a:	0712      	lsls	r2, r2, #28
 800455c:	d401      	bmi.n	8004562 <__ssvfiscanf_r+0x52>
 800455e:	462a      	mov	r2, r5
 8004560:	e7eb      	b.n	800453a <__ssvfiscanf_r+0x2a>
 8004562:	9a45      	ldr	r2, [sp, #276]	; 0x114
 8004564:	3201      	adds	r2, #1
 8004566:	9245      	str	r2, [sp, #276]	; 0x114
 8004568:	6862      	ldr	r2, [r4, #4]
 800456a:	3301      	adds	r3, #1
 800456c:	3a01      	subs	r2, #1
 800456e:	6062      	str	r2, [r4, #4]
 8004570:	6023      	str	r3, [r4, #0]
 8004572:	e7ec      	b.n	800454e <__ssvfiscanf_r+0x3e>
 8004574:	9ba1      	ldr	r3, [sp, #644]	; 0x284
 8004576:	4621      	mov	r1, r4
 8004578:	4630      	mov	r0, r6
 800457a:	4798      	blx	r3
 800457c:	2800      	cmp	r0, #0
 800457e:	d0e9      	beq.n	8004554 <__ssvfiscanf_r+0x44>
 8004580:	e7ed      	b.n	800455e <__ssvfiscanf_r+0x4e>
 8004582:	2b25      	cmp	r3, #37	; 0x25
 8004584:	d012      	beq.n	80045ac <__ssvfiscanf_r+0x9c>
 8004586:	469a      	mov	sl, r3
 8004588:	6863      	ldr	r3, [r4, #4]
 800458a:	2b00      	cmp	r3, #0
 800458c:	f340 8091 	ble.w	80046b2 <__ssvfiscanf_r+0x1a2>
 8004590:	6822      	ldr	r2, [r4, #0]
 8004592:	7813      	ldrb	r3, [r2, #0]
 8004594:	4553      	cmp	r3, sl
 8004596:	f040 812e 	bne.w	80047f6 <__ssvfiscanf_r+0x2e6>
 800459a:	6863      	ldr	r3, [r4, #4]
 800459c:	3b01      	subs	r3, #1
 800459e:	6063      	str	r3, [r4, #4]
 80045a0:	9b45      	ldr	r3, [sp, #276]	; 0x114
 80045a2:	3201      	adds	r2, #1
 80045a4:	3301      	adds	r3, #1
 80045a6:	6022      	str	r2, [r4, #0]
 80045a8:	9345      	str	r3, [sp, #276]	; 0x114
 80045aa:	e7d8      	b.n	800455e <__ssvfiscanf_r+0x4e>
 80045ac:	9141      	str	r1, [sp, #260]	; 0x104
 80045ae:	9143      	str	r1, [sp, #268]	; 0x10c
 80045b0:	7853      	ldrb	r3, [r2, #1]
 80045b2:	2b2a      	cmp	r3, #42	; 0x2a
 80045b4:	bf02      	ittt	eq
 80045b6:	2310      	moveq	r3, #16
 80045b8:	1c95      	addeq	r5, r2, #2
 80045ba:	9341      	streq	r3, [sp, #260]	; 0x104
 80045bc:	220a      	movs	r2, #10
 80045be:	46aa      	mov	sl, r5
 80045c0:	f81a 1b01 	ldrb.w	r1, [sl], #1
 80045c4:	f1a1 0330 	sub.w	r3, r1, #48	; 0x30
 80045c8:	2b09      	cmp	r3, #9
 80045ca:	d91c      	bls.n	8004606 <__ssvfiscanf_r+0xf6>
 80045cc:	487e      	ldr	r0, [pc, #504]	; (80047c8 <__ssvfiscanf_r+0x2b8>)
 80045ce:	2203      	movs	r2, #3
 80045d0:	f7fb fe3e 	bl	8000250 <memchr>
 80045d4:	b138      	cbz	r0, 80045e6 <__ssvfiscanf_r+0xd6>
 80045d6:	9a41      	ldr	r2, [sp, #260]	; 0x104
 80045d8:	eba0 0009 	sub.w	r0, r0, r9
 80045dc:	2301      	movs	r3, #1
 80045de:	4083      	lsls	r3, r0
 80045e0:	4313      	orrs	r3, r2
 80045e2:	9341      	str	r3, [sp, #260]	; 0x104
 80045e4:	4655      	mov	r5, sl
 80045e6:	f815 3b01 	ldrb.w	r3, [r5], #1
 80045ea:	2b78      	cmp	r3, #120	; 0x78
 80045ec:	d806      	bhi.n	80045fc <__ssvfiscanf_r+0xec>
 80045ee:	2b57      	cmp	r3, #87	; 0x57
 80045f0:	d810      	bhi.n	8004614 <__ssvfiscanf_r+0x104>
 80045f2:	2b25      	cmp	r3, #37	; 0x25
 80045f4:	d0c7      	beq.n	8004586 <__ssvfiscanf_r+0x76>
 80045f6:	d857      	bhi.n	80046a8 <__ssvfiscanf_r+0x198>
 80045f8:	2b00      	cmp	r3, #0
 80045fa:	d065      	beq.n	80046c8 <__ssvfiscanf_r+0x1b8>
 80045fc:	2303      	movs	r3, #3
 80045fe:	9347      	str	r3, [sp, #284]	; 0x11c
 8004600:	230a      	movs	r3, #10
 8004602:	9342      	str	r3, [sp, #264]	; 0x108
 8004604:	e076      	b.n	80046f4 <__ssvfiscanf_r+0x1e4>
 8004606:	9b43      	ldr	r3, [sp, #268]	; 0x10c
 8004608:	fb02 1103 	mla	r1, r2, r3, r1
 800460c:	3930      	subs	r1, #48	; 0x30
 800460e:	9143      	str	r1, [sp, #268]	; 0x10c
 8004610:	4655      	mov	r5, sl
 8004612:	e7d4      	b.n	80045be <__ssvfiscanf_r+0xae>
 8004614:	f1a3 0258 	sub.w	r2, r3, #88	; 0x58
 8004618:	2a20      	cmp	r2, #32
 800461a:	d8ef      	bhi.n	80045fc <__ssvfiscanf_r+0xec>
 800461c:	a101      	add	r1, pc, #4	; (adr r1, 8004624 <__ssvfiscanf_r+0x114>)
 800461e:	f851 f022 	ldr.w	pc, [r1, r2, lsl #2]
 8004622:	bf00      	nop
 8004624:	080046d7 	.word	0x080046d7
 8004628:	080045fd 	.word	0x080045fd
 800462c:	080045fd 	.word	0x080045fd
 8004630:	08004735 	.word	0x08004735
 8004634:	080045fd 	.word	0x080045fd
 8004638:	080045fd 	.word	0x080045fd
 800463c:	080045fd 	.word	0x080045fd
 8004640:	080045fd 	.word	0x080045fd
 8004644:	080045fd 	.word	0x080045fd
 8004648:	080045fd 	.word	0x080045fd
 800464c:	080045fd 	.word	0x080045fd
 8004650:	0800474b 	.word	0x0800474b
 8004654:	08004731 	.word	0x08004731
 8004658:	080046af 	.word	0x080046af
 800465c:	080046af 	.word	0x080046af
 8004660:	080046af 	.word	0x080046af
 8004664:	080045fd 	.word	0x080045fd
 8004668:	080046ed 	.word	0x080046ed
 800466c:	080045fd 	.word	0x080045fd
 8004670:	080045fd 	.word	0x080045fd
 8004674:	080045fd 	.word	0x080045fd
 8004678:	080045fd 	.word	0x080045fd
 800467c:	0800475b 	.word	0x0800475b
 8004680:	08004729 	.word	0x08004729
 8004684:	080046cf 	.word	0x080046cf
 8004688:	080045fd 	.word	0x080045fd
 800468c:	080045fd 	.word	0x080045fd
 8004690:	08004757 	.word	0x08004757
 8004694:	080045fd 	.word	0x080045fd
 8004698:	08004731 	.word	0x08004731
 800469c:	080045fd 	.word	0x080045fd
 80046a0:	080045fd 	.word	0x080045fd
 80046a4:	080046d7 	.word	0x080046d7
 80046a8:	3b45      	subs	r3, #69	; 0x45
 80046aa:	2b02      	cmp	r3, #2
 80046ac:	d8a6      	bhi.n	80045fc <__ssvfiscanf_r+0xec>
 80046ae:	2305      	movs	r3, #5
 80046b0:	e01f      	b.n	80046f2 <__ssvfiscanf_r+0x1e2>
 80046b2:	9ba1      	ldr	r3, [sp, #644]	; 0x284
 80046b4:	4621      	mov	r1, r4
 80046b6:	4630      	mov	r0, r6
 80046b8:	4798      	blx	r3
 80046ba:	2800      	cmp	r0, #0
 80046bc:	f43f af68 	beq.w	8004590 <__ssvfiscanf_r+0x80>
 80046c0:	9844      	ldr	r0, [sp, #272]	; 0x110
 80046c2:	2800      	cmp	r0, #0
 80046c4:	f040 808d 	bne.w	80047e2 <__ssvfiscanf_r+0x2d2>
 80046c8:	f04f 30ff 	mov.w	r0, #4294967295
 80046cc:	e08f      	b.n	80047ee <__ssvfiscanf_r+0x2de>
 80046ce:	9a41      	ldr	r2, [sp, #260]	; 0x104
 80046d0:	f042 0220 	orr.w	r2, r2, #32
 80046d4:	9241      	str	r2, [sp, #260]	; 0x104
 80046d6:	9a41      	ldr	r2, [sp, #260]	; 0x104
 80046d8:	f442 7200 	orr.w	r2, r2, #512	; 0x200
 80046dc:	9241      	str	r2, [sp, #260]	; 0x104
 80046de:	2210      	movs	r2, #16
 80046e0:	2b6f      	cmp	r3, #111	; 0x6f
 80046e2:	9242      	str	r2, [sp, #264]	; 0x108
 80046e4:	bf34      	ite	cc
 80046e6:	2303      	movcc	r3, #3
 80046e8:	2304      	movcs	r3, #4
 80046ea:	e002      	b.n	80046f2 <__ssvfiscanf_r+0x1e2>
 80046ec:	2300      	movs	r3, #0
 80046ee:	9342      	str	r3, [sp, #264]	; 0x108
 80046f0:	2303      	movs	r3, #3
 80046f2:	9347      	str	r3, [sp, #284]	; 0x11c
 80046f4:	6863      	ldr	r3, [r4, #4]
 80046f6:	2b00      	cmp	r3, #0
 80046f8:	dd3d      	ble.n	8004776 <__ssvfiscanf_r+0x266>
 80046fa:	9b41      	ldr	r3, [sp, #260]	; 0x104
 80046fc:	0659      	lsls	r1, r3, #25
 80046fe:	d404      	bmi.n	800470a <__ssvfiscanf_r+0x1fa>
 8004700:	6823      	ldr	r3, [r4, #0]
 8004702:	781a      	ldrb	r2, [r3, #0]
 8004704:	5cba      	ldrb	r2, [r7, r2]
 8004706:	0712      	lsls	r2, r2, #28
 8004708:	d43c      	bmi.n	8004784 <__ssvfiscanf_r+0x274>
 800470a:	9b47      	ldr	r3, [sp, #284]	; 0x11c
 800470c:	2b02      	cmp	r3, #2
 800470e:	dc4b      	bgt.n	80047a8 <__ssvfiscanf_r+0x298>
 8004710:	466b      	mov	r3, sp
 8004712:	4622      	mov	r2, r4
 8004714:	a941      	add	r1, sp, #260	; 0x104
 8004716:	4630      	mov	r0, r6
 8004718:	f000 fb46 	bl	8004da8 <_scanf_chars>
 800471c:	2801      	cmp	r0, #1
 800471e:	d06a      	beq.n	80047f6 <__ssvfiscanf_r+0x2e6>
 8004720:	2802      	cmp	r0, #2
 8004722:	f47f af1c 	bne.w	800455e <__ssvfiscanf_r+0x4e>
 8004726:	e7cb      	b.n	80046c0 <__ssvfiscanf_r+0x1b0>
 8004728:	2308      	movs	r3, #8
 800472a:	9342      	str	r3, [sp, #264]	; 0x108
 800472c:	2304      	movs	r3, #4
 800472e:	e7e0      	b.n	80046f2 <__ssvfiscanf_r+0x1e2>
 8004730:	220a      	movs	r2, #10
 8004732:	e7d5      	b.n	80046e0 <__ssvfiscanf_r+0x1d0>
 8004734:	4629      	mov	r1, r5
 8004736:	4640      	mov	r0, r8
 8004738:	f000 fd94 	bl	8005264 <__sccl>
 800473c:	9b41      	ldr	r3, [sp, #260]	; 0x104
 800473e:	f043 0340 	orr.w	r3, r3, #64	; 0x40
 8004742:	9341      	str	r3, [sp, #260]	; 0x104
 8004744:	4605      	mov	r5, r0
 8004746:	2301      	movs	r3, #1
 8004748:	e7d3      	b.n	80046f2 <__ssvfiscanf_r+0x1e2>
 800474a:	9b41      	ldr	r3, [sp, #260]	; 0x104
 800474c:	f043 0340 	orr.w	r3, r3, #64	; 0x40
 8004750:	9341      	str	r3, [sp, #260]	; 0x104
 8004752:	2300      	movs	r3, #0
 8004754:	e7cd      	b.n	80046f2 <__ssvfiscanf_r+0x1e2>
 8004756:	2302      	movs	r3, #2
 8004758:	e7cb      	b.n	80046f2 <__ssvfiscanf_r+0x1e2>
 800475a:	9841      	ldr	r0, [sp, #260]	; 0x104
 800475c:	06c3      	lsls	r3, r0, #27
 800475e:	f53f aefe 	bmi.w	800455e <__ssvfiscanf_r+0x4e>
 8004762:	9b00      	ldr	r3, [sp, #0]
 8004764:	9a45      	ldr	r2, [sp, #276]	; 0x114
 8004766:	1d19      	adds	r1, r3, #4
 8004768:	9100      	str	r1, [sp, #0]
 800476a:	681b      	ldr	r3, [r3, #0]
 800476c:	07c0      	lsls	r0, r0, #31
 800476e:	bf4c      	ite	mi
 8004770:	801a      	strhmi	r2, [r3, #0]
 8004772:	601a      	strpl	r2, [r3, #0]
 8004774:	e6f3      	b.n	800455e <__ssvfiscanf_r+0x4e>
 8004776:	9ba1      	ldr	r3, [sp, #644]	; 0x284
 8004778:	4621      	mov	r1, r4
 800477a:	4630      	mov	r0, r6
 800477c:	4798      	blx	r3
 800477e:	2800      	cmp	r0, #0
 8004780:	d0bb      	beq.n	80046fa <__ssvfiscanf_r+0x1ea>
 8004782:	e79d      	b.n	80046c0 <__ssvfiscanf_r+0x1b0>
 8004784:	9a45      	ldr	r2, [sp, #276]	; 0x114
 8004786:	3201      	adds	r2, #1
 8004788:	9245      	str	r2, [sp, #276]	; 0x114
 800478a:	6862      	ldr	r2, [r4, #4]
 800478c:	3a01      	subs	r2, #1
 800478e:	2a00      	cmp	r2, #0
 8004790:	6062      	str	r2, [r4, #4]
 8004792:	dd02      	ble.n	800479a <__ssvfiscanf_r+0x28a>
 8004794:	3301      	adds	r3, #1
 8004796:	6023      	str	r3, [r4, #0]
 8004798:	e7b2      	b.n	8004700 <__ssvfiscanf_r+0x1f0>
 800479a:	9ba1      	ldr	r3, [sp, #644]	; 0x284
 800479c:	4621      	mov	r1, r4
 800479e:	4630      	mov	r0, r6
 80047a0:	4798      	blx	r3
 80047a2:	2800      	cmp	r0, #0
 80047a4:	d0ac      	beq.n	8004700 <__ssvfiscanf_r+0x1f0>
 80047a6:	e78b      	b.n	80046c0 <__ssvfiscanf_r+0x1b0>
 80047a8:	2b04      	cmp	r3, #4
 80047aa:	dc0f      	bgt.n	80047cc <__ssvfiscanf_r+0x2bc>
 80047ac:	466b      	mov	r3, sp
 80047ae:	4622      	mov	r2, r4
 80047b0:	a941      	add	r1, sp, #260	; 0x104
 80047b2:	4630      	mov	r0, r6
 80047b4:	f000 fb52 	bl	8004e5c <_scanf_i>
 80047b8:	e7b0      	b.n	800471c <__ssvfiscanf_r+0x20c>
 80047ba:	bf00      	nop
 80047bc:	0800445d 	.word	0x0800445d
 80047c0:	080044d7 	.word	0x080044d7
 80047c4:	08005950 	.word	0x08005950
 80047c8:	08005901 	.word	0x08005901
 80047cc:	4b0b      	ldr	r3, [pc, #44]	; (80047fc <__ssvfiscanf_r+0x2ec>)
 80047ce:	2b00      	cmp	r3, #0
 80047d0:	f43f aec5 	beq.w	800455e <__ssvfiscanf_r+0x4e>
 80047d4:	466b      	mov	r3, sp
 80047d6:	4622      	mov	r2, r4
 80047d8:	a941      	add	r1, sp, #260	; 0x104
 80047da:	4630      	mov	r0, r6
 80047dc:	f3af 8000 	nop.w
 80047e0:	e79c      	b.n	800471c <__ssvfiscanf_r+0x20c>
 80047e2:	89a3      	ldrh	r3, [r4, #12]
 80047e4:	f013 0f40 	tst.w	r3, #64	; 0x40
 80047e8:	bf18      	it	ne
 80047ea:	f04f 30ff 	movne.w	r0, #4294967295
 80047ee:	f50d 7d22 	add.w	sp, sp, #648	; 0x288
 80047f2:	e8bd 87f0 	ldmia.w	sp!, {r4, r5, r6, r7, r8, r9, sl, pc}
 80047f6:	9844      	ldr	r0, [sp, #272]	; 0x110
 80047f8:	e7f9      	b.n	80047ee <__ssvfiscanf_r+0x2de>
 80047fa:	bf00      	nop
 80047fc:	00000000 	.word	0x00000000

08004800 <__sfputc_r>:
 8004800:	6893      	ldr	r3, [r2, #8]
 8004802:	3b01      	subs	r3, #1
 8004804:	2b00      	cmp	r3, #0
 8004806:	b410      	push	{r4}
 8004808:	6093      	str	r3, [r2, #8]
 800480a:	da08      	bge.n	800481e <__sfputc_r+0x1e>
 800480c:	6994      	ldr	r4, [r2, #24]
 800480e:	42a3      	cmp	r3, r4
 8004810:	db01      	blt.n	8004816 <__sfputc_r+0x16>
 8004812:	290a      	cmp	r1, #10
 8004814:	d103      	bne.n	800481e <__sfputc_r+0x1e>
 8004816:	f85d 4b04 	ldr.w	r4, [sp], #4
 800481a:	f7ff bc08 	b.w	800402e <__swbuf_r>
 800481e:	6813      	ldr	r3, [r2, #0]
 8004820:	1c58      	adds	r0, r3, #1
 8004822:	6010      	str	r0, [r2, #0]
 8004824:	7019      	strb	r1, [r3, #0]
 8004826:	4608      	mov	r0, r1
 8004828:	f85d 4b04 	ldr.w	r4, [sp], #4
 800482c:	4770      	bx	lr

0800482e <__sfputs_r>:
 800482e:	b5f8      	push	{r3, r4, r5, r6, r7, lr}
 8004830:	4606      	mov	r6, r0
 8004832:	460f      	mov	r7, r1
 8004834:	4614      	mov	r4, r2
 8004836:	18d5      	adds	r5, r2, r3
 8004838:	42ac      	cmp	r4, r5
 800483a:	d101      	bne.n	8004840 <__sfputs_r+0x12>
 800483c:	2000      	movs	r0, #0
 800483e:	e007      	b.n	8004850 <__sfputs_r+0x22>
 8004840:	f814 1b01 	ldrb.w	r1, [r4], #1
 8004844:	463a      	mov	r2, r7
 8004846:	4630      	mov	r0, r6
 8004848:	f7ff ffda 	bl	8004800 <__sfputc_r>
 800484c:	1c43      	adds	r3, r0, #1
 800484e:	d1f3      	bne.n	8004838 <__sfputs_r+0xa>
 8004850:	bdf8      	pop	{r3, r4, r5, r6, r7, pc}
	...

08004854 <_vfiprintf_r>:
 8004854:	e92d 4ff0 	stmdb	sp!, {r4, r5, r6, r7, r8, r9, sl, fp, lr}
 8004858:	460d      	mov	r5, r1
 800485a:	b09d      	sub	sp, #116	; 0x74
 800485c:	4614      	mov	r4, r2
 800485e:	4698      	mov	r8, r3
 8004860:	4606      	mov	r6, r0
 8004862:	b118      	cbz	r0, 800486c <_vfiprintf_r+0x18>
 8004864:	6a03      	ldr	r3, [r0, #32]
 8004866:	b90b      	cbnz	r3, 800486c <_vfiprintf_r+0x18>
 8004868:	f7ff facc 	bl	8003e04 <__sinit>
 800486c:	6e6b      	ldr	r3, [r5, #100]	; 0x64
 800486e:	07d9      	lsls	r1, r3, #31
 8004870:	d405      	bmi.n	800487e <_vfiprintf_r+0x2a>
 8004872:	89ab      	ldrh	r3, [r5, #12]
 8004874:	059a      	lsls	r2, r3, #22
 8004876:	d402      	bmi.n	800487e <_vfiprintf_r+0x2a>
 8004878:	6da8      	ldr	r0, [r5, #88]	; 0x58
 800487a:	f7ff fcf4 	bl	8004266 <__retarget_lock_acquire_recursive>
 800487e:	89ab      	ldrh	r3, [r5, #12]
 8004880:	071b      	lsls	r3, r3, #28
 8004882:	d501      	bpl.n	8004888 <_vfiprintf_r+0x34>
 8004884:	692b      	ldr	r3, [r5, #16]
 8004886:	b99b      	cbnz	r3, 80048b0 <_vfiprintf_r+0x5c>
 8004888:	4629      	mov	r1, r5
 800488a:	4630      	mov	r0, r6
 800488c:	f7ff fc0c 	bl	80040a8 <__swsetup_r>
 8004890:	b170      	cbz	r0, 80048b0 <_vfiprintf_r+0x5c>
 8004892:	6e6b      	ldr	r3, [r5, #100]	; 0x64
 8004894:	07dc      	lsls	r4, r3, #31
 8004896:	d504      	bpl.n	80048a2 <_vfiprintf_r+0x4e>
 8004898:	f04f 30ff 	mov.w	r0, #4294967295
 800489c:	b01d      	add	sp, #116	; 0x74
 800489e:	e8bd 8ff0 	ldmia.w	sp!, {r4, r5, r6, r7, r8, r9, sl, fp, pc}
 80048a2:	89ab      	ldrh	r3, [r5, #12]
 80048a4:	0598      	lsls	r0, r3, #22
 80048a6:	d4f7      	bmi.n	8004898 <_vfiprintf_r+0x44>
 80048a8:	6da8      	ldr	r0, [r5, #88]	; 0x58
 80048aa:	f7ff fcdd 	bl	8004268 <__retarget_lock_release_recursive>
 80048ae:	e7f3      	b.n	8004898 <_vfiprintf_r+0x44>
 80048b0:	2300      	movs	r3, #0
 80048b2:	9309      	str	r3, [sp, #36]	; 0x24
 80048b4:	2320      	movs	r3, #32
 80048b6:	f88d 3029 	strb.w	r3, [sp, #41]	; 0x29
 80048ba:	f8cd 800c 	str.w	r8, [sp, #12]
 80048be:	2330      	movs	r3, #48	; 0x30
 80048c0:	f8df 81b0 	ldr.w	r8, [pc, #432]	; 8004a74 <_vfiprintf_r+0x220>
 80048c4:	f88d 302a 	strb.w	r3, [sp, #42]	; 0x2a
 80048c8:	f04f 0901 	mov.w	r9, #1
 80048cc:	4623      	mov	r3, r4
 80048ce:	469a      	mov	sl, r3
 80048d0:	f813 2b01 	ldrb.w	r2, [r3], #1
 80048d4:	b10a      	cbz	r2, 80048da <_vfiprintf_r+0x86>
 80048d6:	2a25      	cmp	r2, #37	; 0x25
 80048d8:	d1f9      	bne.n	80048ce <_vfiprintf_r+0x7a>
 80048da:	ebba 0b04 	subs.w	fp, sl, r4
 80048de:	d00b      	beq.n	80048f8 <_vfiprintf_r+0xa4>
 80048e0:	465b      	mov	r3, fp
 80048e2:	4622      	mov	r2, r4
 80048e4:	4629      	mov	r1, r5
 80048e6:	4630      	mov	r0, r6
 80048e8:	f7ff ffa1 	bl	800482e <__sfputs_r>
 80048ec:	3001      	adds	r0, #1
 80048ee:	f000 80a9 	beq.w	8004a44 <_vfiprintf_r+0x1f0>
 80048f2:	9a09      	ldr	r2, [sp, #36]	; 0x24
 80048f4:	445a      	add	r2, fp
 80048f6:	9209      	str	r2, [sp, #36]	; 0x24
 80048f8:	f89a 3000 	ldrb.w	r3, [sl]
 80048fc:	2b00      	cmp	r3, #0
 80048fe:	f000 80a1 	beq.w	8004a44 <_vfiprintf_r+0x1f0>
 8004902:	2300      	movs	r3, #0
 8004904:	f04f 32ff 	mov.w	r2, #4294967295
 8004908:	e9cd 2305 	strd	r2, r3, [sp, #20]
 800490c:	f10a 0a01 	add.w	sl, sl, #1
 8004910:	9304      	str	r3, [sp, #16]
 8004912:	9307      	str	r3, [sp, #28]
 8004914:	f88d 3053 	strb.w	r3, [sp, #83]	; 0x53
 8004918:	931a      	str	r3, [sp, #104]	; 0x68
 800491a:	4654      	mov	r4, sl
 800491c:	2205      	movs	r2, #5
 800491e:	f814 1b01 	ldrb.w	r1, [r4], #1
 8004922:	4854      	ldr	r0, [pc, #336]	; (8004a74 <_vfiprintf_r+0x220>)
 8004924:	f7fb fc94 	bl	8000250 <memchr>
 8004928:	9a04      	ldr	r2, [sp, #16]
 800492a:	b9d8      	cbnz	r0, 8004964 <_vfiprintf_r+0x110>
 800492c:	06d1      	lsls	r1, r2, #27
 800492e:	bf44      	itt	mi
 8004930:	2320      	movmi	r3, #32
 8004932:	f88d 3053 	strbmi.w	r3, [sp, #83]	; 0x53
 8004936:	0713      	lsls	r3, r2, #28
 8004938:	bf44      	itt	mi
 800493a:	232b      	movmi	r3, #43	; 0x2b
 800493c:	f88d 3053 	strbmi.w	r3, [sp, #83]	; 0x53
 8004940:	f89a 3000 	ldrb.w	r3, [sl]
 8004944:	2b2a      	cmp	r3, #42	; 0x2a
 8004946:	d015      	beq.n	8004974 <_vfiprintf_r+0x120>
 8004948:	9a07      	ldr	r2, [sp, #28]
 800494a:	4654      	mov	r4, sl
 800494c:	2000      	movs	r0, #0
 800494e:	f04f 0c0a 	mov.w	ip, #10
 8004952:	4621      	mov	r1, r4
 8004954:	f811 3b01 	ldrb.w	r3, [r1], #1
 8004958:	3b30      	subs	r3, #48	; 0x30
 800495a:	2b09      	cmp	r3, #9
 800495c:	d94d      	bls.n	80049fa <_vfiprintf_r+0x1a6>
 800495e:	b1b0      	cbz	r0, 800498e <_vfiprintf_r+0x13a>
 8004960:	9207      	str	r2, [sp, #28]
 8004962:	e014      	b.n	800498e <_vfiprintf_r+0x13a>
 8004964:	eba0 0308 	sub.w	r3, r0, r8
 8004968:	fa09 f303 	lsl.w	r3, r9, r3
 800496c:	4313      	orrs	r3, r2
 800496e:	9304      	str	r3, [sp, #16]
 8004970:	46a2      	mov	sl, r4
 8004972:	e7d2      	b.n	800491a <_vfiprintf_r+0xc6>
 8004974:	9b03      	ldr	r3, [sp, #12]
 8004976:	1d19      	adds	r1, r3, #4
 8004978:	681b      	ldr	r3, [r3, #0]
 800497a:	9103      	str	r1, [sp, #12]
 800497c:	2b00      	cmp	r3, #0
 800497e:	bfbb      	ittet	lt
 8004980:	425b      	neglt	r3, r3
 8004982:	f042 0202 	orrlt.w	r2, r2, #2
 8004986:	9307      	strge	r3, [sp, #28]
 8004988:	9307      	strlt	r3, [sp, #28]
 800498a:	bfb8      	it	lt
 800498c:	9204      	strlt	r2, [sp, #16]
 800498e:	7823      	ldrb	r3, [r4, #0]
 8004990:	2b2e      	cmp	r3, #46	; 0x2e
 8004992:	d10c      	bne.n	80049ae <_vfiprintf_r+0x15a>
 8004994:	7863      	ldrb	r3, [r4, #1]
 8004996:	2b2a      	cmp	r3, #42	; 0x2a
 8004998:	d134      	bne.n	8004a04 <_vfiprintf_r+0x1b0>
 800499a:	9b03      	ldr	r3, [sp, #12]
 800499c:	1d1a      	adds	r2, r3, #4
 800499e:	681b      	ldr	r3, [r3, #0]
 80049a0:	9203      	str	r2, [sp, #12]
 80049a2:	2b00      	cmp	r3, #0
 80049a4:	bfb8      	it	lt
 80049a6:	f04f 33ff 	movlt.w	r3, #4294967295
 80049aa:	3402      	adds	r4, #2
 80049ac:	9305      	str	r3, [sp, #20]
 80049ae:	f8df a0d4 	ldr.w	sl, [pc, #212]	; 8004a84 <_vfiprintf_r+0x230>
 80049b2:	7821      	ldrb	r1, [r4, #0]
 80049b4:	2203      	movs	r2, #3
 80049b6:	4650      	mov	r0, sl
 80049b8:	f7fb fc4a 	bl	8000250 <memchr>
 80049bc:	b138      	cbz	r0, 80049ce <_vfiprintf_r+0x17a>
 80049be:	9b04      	ldr	r3, [sp, #16]
 80049c0:	eba0 000a 	sub.w	r0, r0, sl
 80049c4:	2240      	movs	r2, #64	; 0x40
 80049c6:	4082      	lsls	r2, r0
 80049c8:	4313      	orrs	r3, r2
 80049ca:	3401      	adds	r4, #1
 80049cc:	9304      	str	r3, [sp, #16]
 80049ce:	f814 1b01 	ldrb.w	r1, [r4], #1
 80049d2:	4829      	ldr	r0, [pc, #164]	; (8004a78 <_vfiprintf_r+0x224>)
 80049d4:	f88d 1028 	strb.w	r1, [sp, #40]	; 0x28
 80049d8:	2206      	movs	r2, #6
 80049da:	f7fb fc39 	bl	8000250 <memchr>
 80049de:	2800      	cmp	r0, #0
 80049e0:	d03f      	beq.n	8004a62 <_vfiprintf_r+0x20e>
 80049e2:	4b26      	ldr	r3, [pc, #152]	; (8004a7c <_vfiprintf_r+0x228>)
 80049e4:	bb1b      	cbnz	r3, 8004a2e <_vfiprintf_r+0x1da>
 80049e6:	9b03      	ldr	r3, [sp, #12]
 80049e8:	3307      	adds	r3, #7
 80049ea:	f023 0307 	bic.w	r3, r3, #7
 80049ee:	3308      	adds	r3, #8
 80049f0:	9303      	str	r3, [sp, #12]
 80049f2:	9b09      	ldr	r3, [sp, #36]	; 0x24
 80049f4:	443b      	add	r3, r7
 80049f6:	9309      	str	r3, [sp, #36]	; 0x24
 80049f8:	e768      	b.n	80048cc <_vfiprintf_r+0x78>
 80049fa:	fb0c 3202 	mla	r2, ip, r2, r3
 80049fe:	460c      	mov	r4, r1
 8004a00:	2001      	movs	r0, #1
 8004a02:	e7a6      	b.n	8004952 <_vfiprintf_r+0xfe>
 8004a04:	2300      	movs	r3, #0
 8004a06:	3401      	adds	r4, #1
 8004a08:	9305      	str	r3, [sp, #20]
 8004a0a:	4619      	mov	r1, r3
 8004a0c:	f04f 0c0a 	mov.w	ip, #10
 8004a10:	4620      	mov	r0, r4
 8004a12:	f810 2b01 	ldrb.w	r2, [r0], #1
 8004a16:	3a30      	subs	r2, #48	; 0x30
 8004a18:	2a09      	cmp	r2, #9
 8004a1a:	d903      	bls.n	8004a24 <_vfiprintf_r+0x1d0>
 8004a1c:	2b00      	cmp	r3, #0
 8004a1e:	d0c6      	beq.n	80049ae <_vfiprintf_r+0x15a>
 8004a20:	9105      	str	r1, [sp, #20]
 8004a22:	e7c4      	b.n	80049ae <_vfiprintf_r+0x15a>
 8004a24:	fb0c 2101 	mla	r1, ip, r1, r2
 8004a28:	4604      	mov	r4, r0
 8004a2a:	2301      	movs	r3, #1
 8004a2c:	e7f0      	b.n	8004a10 <_vfiprintf_r+0x1bc>
 8004a2e:	ab03      	add	r3, sp, #12
 8004a30:	9300      	str	r3, [sp, #0]
 8004a32:	462a      	mov	r2, r5
 8004a34:	4b12      	ldr	r3, [pc, #72]	; (8004a80 <_vfiprintf_r+0x22c>)
 8004a36:	a904      	add	r1, sp, #16
 8004a38:	4630      	mov	r0, r6
 8004a3a:	f3af 8000 	nop.w
 8004a3e:	4607      	mov	r7, r0
 8004a40:	1c78      	adds	r0, r7, #1
 8004a42:	d1d6      	bne.n	80049f2 <_vfiprintf_r+0x19e>
 8004a44:	6e6b      	ldr	r3, [r5, #100]	; 0x64
 8004a46:	07d9      	lsls	r1, r3, #31
 8004a48:	d405      	bmi.n	8004a56 <_vfiprintf_r+0x202>
 8004a4a:	89ab      	ldrh	r3, [r5, #12]
 8004a4c:	059a      	lsls	r2, r3, #22
 8004a4e:	d402      	bmi.n	8004a56 <_vfiprintf_r+0x202>
 8004a50:	6da8      	ldr	r0, [r5, #88]	; 0x58
 8004a52:	f7ff fc09 	bl	8004268 <__retarget_lock_release_recursive>
 8004a56:	89ab      	ldrh	r3, [r5, #12]
 8004a58:	065b      	lsls	r3, r3, #25
 8004a5a:	f53f af1d 	bmi.w	8004898 <_vfiprintf_r+0x44>
 8004a5e:	9809      	ldr	r0, [sp, #36]	; 0x24
 8004a60:	e71c      	b.n	800489c <_vfiprintf_r+0x48>
 8004a62:	ab03      	add	r3, sp, #12
 8004a64:	9300      	str	r3, [sp, #0]
 8004a66:	462a      	mov	r2, r5
 8004a68:	4b05      	ldr	r3, [pc, #20]	; (8004a80 <_vfiprintf_r+0x22c>)
 8004a6a:	a904      	add	r1, sp, #16
 8004a6c:	4630      	mov	r0, r6
 8004a6e:	f000 f879 	bl	8004b64 <_printf_i>
 8004a72:	e7e4      	b.n	8004a3e <_vfiprintf_r+0x1ea>
 8004a74:	08005905 	.word	0x08005905
 8004a78:	0800590b 	.word	0x0800590b
 8004a7c:	00000000 	.word	0x00000000
 8004a80:	0800482f 	.word	0x0800482f
 8004a84:	08005901 	.word	0x08005901

08004a88 <_printf_common>:
 8004a88:	e92d 47f0 	stmdb	sp!, {r4, r5, r6, r7, r8, r9, sl, lr}
 8004a8c:	4616      	mov	r6, r2
 8004a8e:	4699      	mov	r9, r3
 8004a90:	688a      	ldr	r2, [r1, #8]
 8004a92:	690b      	ldr	r3, [r1, #16]
 8004a94:	f8dd 8020 	ldr.w	r8, [sp, #32]
 8004a98:	4293      	cmp	r3, r2
 8004a9a:	bfb8      	it	lt
 8004a9c:	4613      	movlt	r3, r2
 8004a9e:	6033      	str	r3, [r6, #0]
 8004aa0:	f891 2043 	ldrb.w	r2, [r1, #67]	; 0x43
 8004aa4:	4607      	mov	r7, r0
 8004aa6:	460c      	mov	r4, r1
 8004aa8:	b10a      	cbz	r2, 8004aae <_printf_common+0x26>
 8004aaa:	3301      	adds	r3, #1
 8004aac:	6033      	str	r3, [r6, #0]
 8004aae:	6823      	ldr	r3, [r4, #0]
 8004ab0:	0699      	lsls	r1, r3, #26
 8004ab2:	bf42      	ittt	mi
 8004ab4:	6833      	ldrmi	r3, [r6, #0]
 8004ab6:	3302      	addmi	r3, #2
 8004ab8:	6033      	strmi	r3, [r6, #0]
 8004aba:	6825      	ldr	r5, [r4, #0]
 8004abc:	f015 0506 	ands.w	r5, r5, #6
 8004ac0:	d106      	bne.n	8004ad0 <_printf_common+0x48>
 8004ac2:	f104 0a19 	add.w	sl, r4, #25
 8004ac6:	68e3      	ldr	r3, [r4, #12]
 8004ac8:	6832      	ldr	r2, [r6, #0]
 8004aca:	1a9b      	subs	r3, r3, r2
 8004acc:	42ab      	cmp	r3, r5
 8004ace:	dc26      	bgt.n	8004b1e <_printf_common+0x96>
 8004ad0:	f894 2043 	ldrb.w	r2, [r4, #67]	; 0x43
 8004ad4:	1e13      	subs	r3, r2, #0
 8004ad6:	6822      	ldr	r2, [r4, #0]
 8004ad8:	bf18      	it	ne
 8004ada:	2301      	movne	r3, #1
 8004adc:	0692      	lsls	r2, r2, #26
 8004ade:	d42b      	bmi.n	8004b38 <_printf_common+0xb0>
 8004ae0:	f104 0243 	add.w	r2, r4, #67	; 0x43
 8004ae4:	4649      	mov	r1, r9
 8004ae6:	4638      	mov	r0, r7
 8004ae8:	47c0      	blx	r8
 8004aea:	3001      	adds	r0, #1
 8004aec:	d01e      	beq.n	8004b2c <_printf_common+0xa4>
 8004aee:	6823      	ldr	r3, [r4, #0]
 8004af0:	6922      	ldr	r2, [r4, #16]
 8004af2:	f003 0306 	and.w	r3, r3, #6
 8004af6:	2b04      	cmp	r3, #4
 8004af8:	bf02      	ittt	eq
 8004afa:	68e5      	ldreq	r5, [r4, #12]
 8004afc:	6833      	ldreq	r3, [r6, #0]
 8004afe:	1aed      	subeq	r5, r5, r3
 8004b00:	68a3      	ldr	r3, [r4, #8]
 8004b02:	bf0c      	ite	eq
 8004b04:	ea25 75e5 	biceq.w	r5, r5, r5, asr #31
 8004b08:	2500      	movne	r5, #0
 8004b0a:	4293      	cmp	r3, r2
 8004b0c:	bfc4      	itt	gt
 8004b0e:	1a9b      	subgt	r3, r3, r2
 8004b10:	18ed      	addgt	r5, r5, r3
 8004b12:	2600      	movs	r6, #0
 8004b14:	341a      	adds	r4, #26
 8004b16:	42b5      	cmp	r5, r6
 8004b18:	d11a      	bne.n	8004b50 <_printf_common+0xc8>
 8004b1a:	2000      	movs	r0, #0
 8004b1c:	e008      	b.n	8004b30 <_printf_common+0xa8>
 8004b1e:	2301      	movs	r3, #1
 8004b20:	4652      	mov	r2, sl
 8004b22:	4649      	mov	r1, r9
 8004b24:	4638      	mov	r0, r7
 8004b26:	47c0      	blx	r8
 8004b28:	3001      	adds	r0, #1
 8004b2a:	d103      	bne.n	8004b34 <_printf_common+0xac>
 8004b2c:	f04f 30ff 	mov.w	r0, #4294967295
 8004b30:	e8bd 87f0 	ldmia.w	sp!, {r4, r5, r6, r7, r8, r9, sl, pc}
 8004b34:	3501      	adds	r5, #1
 8004b36:	e7c6      	b.n	8004ac6 <_printf_common+0x3e>
 8004b38:	18e1      	adds	r1, r4, r3
 8004b3a:	1c5a      	adds	r2, r3, #1
 8004b3c:	2030      	movs	r0, #48	; 0x30
 8004b3e:	f881 0043 	strb.w	r0, [r1, #67]	; 0x43
 8004b42:	4422      	add	r2, r4
 8004b44:	f894 1045 	ldrb.w	r1, [r4, #69]	; 0x45
 8004b48:	f882 1043 	strb.w	r1, [r2, #67]	; 0x43
 8004b4c:	3302      	adds	r3, #2
 8004b4e:	e7c7      	b.n	8004ae0 <_printf_common+0x58>
 8004b50:	2301      	movs	r3, #1
 8004b52:	4622      	mov	r2, r4
 8004b54:	4649      	mov	r1, r9
 8004b56:	4638      	mov	r0, r7
 8004b58:	47c0      	blx	r8
 8004b5a:	3001      	adds	r0, #1
 8004b5c:	d0e6      	beq.n	8004b2c <_printf_common+0xa4>
 8004b5e:	3601      	adds	r6, #1
 8004b60:	e7d9      	b.n	8004b16 <_printf_common+0x8e>
	...

08004b64 <_printf_i>:
 8004b64:	e92d 47ff 	stmdb	sp!, {r0, r1, r2, r3, r4, r5, r6, r7, r8, r9, sl, lr}
 8004b68:	7e0f      	ldrb	r7, [r1, #24]
 8004b6a:	9d0c      	ldr	r5, [sp, #48]	; 0x30
 8004b6c:	2f78      	cmp	r7, #120	; 0x78
 8004b6e:	4691      	mov	r9, r2
 8004b70:	4680      	mov	r8, r0
 8004b72:	460c      	mov	r4, r1
 8004b74:	469a      	mov	sl, r3
 8004b76:	f101 0243 	add.w	r2, r1, #67	; 0x43
 8004b7a:	d807      	bhi.n	8004b8c <_printf_i+0x28>
 8004b7c:	2f62      	cmp	r7, #98	; 0x62
 8004b7e:	d80a      	bhi.n	8004b96 <_printf_i+0x32>
 8004b80:	2f00      	cmp	r7, #0
 8004b82:	f000 80d4 	beq.w	8004d2e <_printf_i+0x1ca>
 8004b86:	2f58      	cmp	r7, #88	; 0x58
 8004b88:	f000 80c0 	beq.w	8004d0c <_printf_i+0x1a8>
 8004b8c:	f104 0542 	add.w	r5, r4, #66	; 0x42
 8004b90:	f884 7042 	strb.w	r7, [r4, #66]	; 0x42
 8004b94:	e03a      	b.n	8004c0c <_printf_i+0xa8>
 8004b96:	f1a7 0363 	sub.w	r3, r7, #99	; 0x63
 8004b9a:	2b15      	cmp	r3, #21
 8004b9c:	d8f6      	bhi.n	8004b8c <_printf_i+0x28>
 8004b9e:	a101      	add	r1, pc, #4	; (adr r1, 8004ba4 <_printf_i+0x40>)
 8004ba0:	f851 f023 	ldr.w	pc, [r1, r3, lsl #2]
 8004ba4:	08004bfd 	.word	0x08004bfd
 8004ba8:	08004c11 	.word	0x08004c11
 8004bac:	08004b8d 	.word	0x08004b8d
 8004bb0:	08004b8d 	.word	0x08004b8d
 8004bb4:	08004b8d 	.word	0x08004b8d
 8004bb8:	08004b8d 	.word	0x08004b8d
 8004bbc:	08004c11 	.word	0x08004c11
 8004bc0:	08004b8d 	.word	0x08004b8d
 8004bc4:	08004b8d 	.word	0x08004b8d
 8004bc8:	08004b8d 	.word	0x08004b8d
 8004bcc:	08004b8d 	.word	0x08004b8d
 8004bd0:	08004d15 	.word	0x08004d15
 8004bd4:	08004c3d 	.word	0x08004c3d
 8004bd8:	08004ccf 	.word	0x08004ccf
 8004bdc:	08004b8d 	.word	0x08004b8d
 8004be0:	08004b8d 	.word	0x08004b8d
 8004be4:	08004d37 	.word	0x08004d37
 8004be8:	08004b8d 	.word	0x08004b8d
 8004bec:	08004c3d 	.word	0x08004c3d
 8004bf0:	08004b8d 	.word	0x08004b8d
 8004bf4:	08004b8d 	.word	0x08004b8d
 8004bf8:	08004cd7 	.word	0x08004cd7
 8004bfc:	682b      	ldr	r3, [r5, #0]
 8004bfe:	1d1a      	adds	r2, r3, #4
 8004c00:	681b      	ldr	r3, [r3, #0]
 8004c02:	602a      	str	r2, [r5, #0]
 8004c04:	f104 0542 	add.w	r5, r4, #66	; 0x42
 8004c08:	f884 3042 	strb.w	r3, [r4, #66]	; 0x42
 8004c0c:	2301      	movs	r3, #1
 8004c0e:	e09f      	b.n	8004d50 <_printf_i+0x1ec>
 8004c10:	6820      	ldr	r0, [r4, #0]
 8004c12:	682b      	ldr	r3, [r5, #0]
 8004c14:	0607      	lsls	r7, r0, #24
 8004c16:	f103 0104 	add.w	r1, r3, #4
 8004c1a:	6029      	str	r1, [r5, #0]
 8004c1c:	d501      	bpl.n	8004c22 <_printf_i+0xbe>
 8004c1e:	681e      	ldr	r6, [r3, #0]
 8004c20:	e003      	b.n	8004c2a <_printf_i+0xc6>
 8004c22:	0646      	lsls	r6, r0, #25
 8004c24:	d5fb      	bpl.n	8004c1e <_printf_i+0xba>
 8004c26:	f9b3 6000 	ldrsh.w	r6, [r3]
 8004c2a:	2e00      	cmp	r6, #0
 8004c2c:	da03      	bge.n	8004c36 <_printf_i+0xd2>
 8004c2e:	232d      	movs	r3, #45	; 0x2d
 8004c30:	4276      	negs	r6, r6
 8004c32:	f884 3043 	strb.w	r3, [r4, #67]	; 0x43
 8004c36:	485a      	ldr	r0, [pc, #360]	; (8004da0 <_printf_i+0x23c>)
 8004c38:	230a      	movs	r3, #10
 8004c3a:	e012      	b.n	8004c62 <_printf_i+0xfe>
 8004c3c:	682b      	ldr	r3, [r5, #0]
 8004c3e:	6820      	ldr	r0, [r4, #0]
 8004c40:	1d19      	adds	r1, r3, #4
 8004c42:	6029      	str	r1, [r5, #0]
 8004c44:	0605      	lsls	r5, r0, #24
 8004c46:	d501      	bpl.n	8004c4c <_printf_i+0xe8>
 8004c48:	681e      	ldr	r6, [r3, #0]
 8004c4a:	e002      	b.n	8004c52 <_printf_i+0xee>
 8004c4c:	0641      	lsls	r1, r0, #25
 8004c4e:	d5fb      	bpl.n	8004c48 <_printf_i+0xe4>
 8004c50:	881e      	ldrh	r6, [r3, #0]
 8004c52:	4853      	ldr	r0, [pc, #332]	; (8004da0 <_printf_i+0x23c>)
 8004c54:	2f6f      	cmp	r7, #111	; 0x6f
 8004c56:	bf0c      	ite	eq
 8004c58:	2308      	moveq	r3, #8
 8004c5a:	230a      	movne	r3, #10
 8004c5c:	2100      	movs	r1, #0
 8004c5e:	f884 1043 	strb.w	r1, [r4, #67]	; 0x43
 8004c62:	6865      	ldr	r5, [r4, #4]
 8004c64:	60a5      	str	r5, [r4, #8]
 8004c66:	2d00      	cmp	r5, #0
 8004c68:	bfa2      	ittt	ge
 8004c6a:	6821      	ldrge	r1, [r4, #0]
 8004c6c:	f021 0104 	bicge.w	r1, r1, #4
 8004c70:	6021      	strge	r1, [r4, #0]
 8004c72:	b90e      	cbnz	r6, 8004c78 <_printf_i+0x114>
 8004c74:	2d00      	cmp	r5, #0
 8004c76:	d04b      	beq.n	8004d10 <_printf_i+0x1ac>
 8004c78:	4615      	mov	r5, r2
 8004c7a:	fbb6 f1f3 	udiv	r1, r6, r3
 8004c7e:	fb03 6711 	mls	r7, r3, r1, r6
 8004c82:	5dc7      	ldrb	r7, [r0, r7]
 8004c84:	f805 7d01 	strb.w	r7, [r5, #-1]!
 8004c88:	4637      	mov	r7, r6
 8004c8a:	42bb      	cmp	r3, r7
 8004c8c:	460e      	mov	r6, r1
 8004c8e:	d9f4      	bls.n	8004c7a <_printf_i+0x116>
 8004c90:	2b08      	cmp	r3, #8
 8004c92:	d10b      	bne.n	8004cac <_printf_i+0x148>
 8004c94:	6823      	ldr	r3, [r4, #0]
 8004c96:	07de      	lsls	r6, r3, #31
 8004c98:	d508      	bpl.n	8004cac <_printf_i+0x148>
 8004c9a:	6923      	ldr	r3, [r4, #16]
 8004c9c:	6861      	ldr	r1, [r4, #4]
 8004c9e:	4299      	cmp	r1, r3
 8004ca0:	bfde      	ittt	le
 8004ca2:	2330      	movle	r3, #48	; 0x30
 8004ca4:	f805 3c01 	strble.w	r3, [r5, #-1]
 8004ca8:	f105 35ff 	addle.w	r5, r5, #4294967295
 8004cac:	1b52      	subs	r2, r2, r5
 8004cae:	6122      	str	r2, [r4, #16]
 8004cb0:	f8cd a000 	str.w	sl, [sp]
 8004cb4:	464b      	mov	r3, r9
 8004cb6:	aa03      	add	r2, sp, #12
 8004cb8:	4621      	mov	r1, r4
 8004cba:	4640      	mov	r0, r8
 8004cbc:	f7ff fee4 	bl	8004a88 <_printf_common>
 8004cc0:	3001      	adds	r0, #1
 8004cc2:	d14a      	bne.n	8004d5a <_printf_i+0x1f6>
 8004cc4:	f04f 30ff 	mov.w	r0, #4294967295
 8004cc8:	b004      	add	sp, #16
 8004cca:	e8bd 87f0 	ldmia.w	sp!, {r4, r5, r6, r7, r8, r9, sl, pc}
 8004cce:	6823      	ldr	r3, [r4, #0]
 8004cd0:	f043 0320 	orr.w	r3, r3, #32
 8004cd4:	6023      	str	r3, [r4, #0]
 8004cd6:	4833      	ldr	r0, [pc, #204]	; (8004da4 <_printf_i+0x240>)
 8004cd8:	2778      	movs	r7, #120	; 0x78
 8004cda:	f884 7045 	strb.w	r7, [r4, #69]	; 0x45
 8004cde:	6823      	ldr	r3, [r4, #0]
 8004ce0:	6829      	ldr	r1, [r5, #0]
 8004ce2:	061f      	lsls	r7, r3, #24
 8004ce4:	f851 6b04 	ldr.w	r6, [r1], #4
 8004ce8:	d402      	bmi.n	8004cf0 <_printf_i+0x18c>
 8004cea:	065f      	lsls	r7, r3, #25
 8004cec:	bf48      	it	mi
 8004cee:	b2b6      	uxthmi	r6, r6
 8004cf0:	07df      	lsls	r7, r3, #31
 8004cf2:	bf48      	it	mi
 8004cf4:	f043 0320 	orrmi.w	r3, r3, #32
 8004cf8:	6029      	str	r1, [r5, #0]
 8004cfa:	bf48      	it	mi
 8004cfc:	6023      	strmi	r3, [r4, #0]
 8004cfe:	b91e      	cbnz	r6, 8004d08 <_printf_i+0x1a4>
 8004d00:	6823      	ldr	r3, [r4, #0]
 8004d02:	f023 0320 	bic.w	r3, r3, #32
 8004d06:	6023      	str	r3, [r4, #0]
 8004d08:	2310      	movs	r3, #16
 8004d0a:	e7a7      	b.n	8004c5c <_printf_i+0xf8>
 8004d0c:	4824      	ldr	r0, [pc, #144]	; (8004da0 <_printf_i+0x23c>)
 8004d0e:	e7e4      	b.n	8004cda <_printf_i+0x176>
 8004d10:	4615      	mov	r5, r2
 8004d12:	e7bd      	b.n	8004c90 <_printf_i+0x12c>
 8004d14:	682b      	ldr	r3, [r5, #0]
 8004d16:	6826      	ldr	r6, [r4, #0]
 8004d18:	6961      	ldr	r1, [r4, #20]
 8004d1a:	1d18      	adds	r0, r3, #4
 8004d1c:	6028      	str	r0, [r5, #0]
 8004d1e:	0635      	lsls	r5, r6, #24
 8004d20:	681b      	ldr	r3, [r3, #0]
 8004d22:	d501      	bpl.n	8004d28 <_printf_i+0x1c4>
 8004d24:	6019      	str	r1, [r3, #0]
 8004d26:	e002      	b.n	8004d2e <_printf_i+0x1ca>
 8004d28:	0670      	lsls	r0, r6, #25
 8004d2a:	d5fb      	bpl.n	8004d24 <_printf_i+0x1c0>
 8004d2c:	8019      	strh	r1, [r3, #0]
 8004d2e:	2300      	movs	r3, #0
 8004d30:	6123      	str	r3, [r4, #16]
 8004d32:	4615      	mov	r5, r2
 8004d34:	e7bc      	b.n	8004cb0 <_printf_i+0x14c>
 8004d36:	682b      	ldr	r3, [r5, #0]
 8004d38:	1d1a      	adds	r2, r3, #4
 8004d3a:	602a      	str	r2, [r5, #0]
 8004d3c:	681d      	ldr	r5, [r3, #0]
 8004d3e:	6862      	ldr	r2, [r4, #4]
 8004d40:	2100      	movs	r1, #0
 8004d42:	4628      	mov	r0, r5
 8004d44:	f7fb fa84 	bl	8000250 <memchr>
 8004d48:	b108      	cbz	r0, 8004d4e <_printf_i+0x1ea>
 8004d4a:	1b40      	subs	r0, r0, r5
 8004d4c:	6060      	str	r0, [r4, #4]
 8004d4e:	6863      	ldr	r3, [r4, #4]
 8004d50:	6123      	str	r3, [r4, #16]
 8004d52:	2300      	movs	r3, #0
 8004d54:	f884 3043 	strb.w	r3, [r4, #67]	; 0x43
 8004d58:	e7aa      	b.n	8004cb0 <_printf_i+0x14c>
 8004d5a:	6923      	ldr	r3, [r4, #16]
 8004d5c:	462a      	mov	r2, r5
 8004d5e:	4649      	mov	r1, r9
 8004d60:	4640      	mov	r0, r8
 8004d62:	47d0      	blx	sl
 8004d64:	3001      	adds	r0, #1
 8004d66:	d0ad      	beq.n	8004cc4 <_printf_i+0x160>
 8004d68:	6823      	ldr	r3, [r4, #0]
 8004d6a:	079b      	lsls	r3, r3, #30
 8004d6c:	d413      	bmi.n	8004d96 <_printf_i+0x232>
 8004d6e:	68e0      	ldr	r0, [r4, #12]
 8004d70:	9b03      	ldr	r3, [sp, #12]
 8004d72:	4298      	cmp	r0, r3
 8004d74:	bfb8      	it	lt
 8004d76:	4618      	movlt	r0, r3
 8004d78:	e7a6      	b.n	8004cc8 <_printf_i+0x164>
 8004d7a:	2301      	movs	r3, #1
 8004d7c:	4632      	mov	r2, r6
 8004d7e:	4649      	mov	r1, r9
 8004d80:	4640      	mov	r0, r8
 8004d82:	47d0      	blx	sl
 8004d84:	3001      	adds	r0, #1
 8004d86:	d09d      	beq.n	8004cc4 <_printf_i+0x160>
 8004d88:	3501      	adds	r5, #1
 8004d8a:	68e3      	ldr	r3, [r4, #12]
 8004d8c:	9903      	ldr	r1, [sp, #12]
 8004d8e:	1a5b      	subs	r3, r3, r1
 8004d90:	42ab      	cmp	r3, r5
 8004d92:	dcf2      	bgt.n	8004d7a <_printf_i+0x216>
 8004d94:	e7eb      	b.n	8004d6e <_printf_i+0x20a>
 8004d96:	2500      	movs	r5, #0
 8004d98:	f104 0619 	add.w	r6, r4, #25
 8004d9c:	e7f5      	b.n	8004d8a <_printf_i+0x226>
 8004d9e:	bf00      	nop
 8004da0:	08005912 	.word	0x08005912
 8004da4:	08005923 	.word	0x08005923

08004da8 <_scanf_chars>:
 8004da8:	e92d 43f8 	stmdb	sp!, {r3, r4, r5, r6, r7, r8, r9, lr}
 8004dac:	4615      	mov	r5, r2
 8004dae:	688a      	ldr	r2, [r1, #8]
 8004db0:	4680      	mov	r8, r0
 8004db2:	460c      	mov	r4, r1
 8004db4:	b932      	cbnz	r2, 8004dc4 <_scanf_chars+0x1c>
 8004db6:	698a      	ldr	r2, [r1, #24]
 8004db8:	2a00      	cmp	r2, #0
 8004dba:	bf0c      	ite	eq
 8004dbc:	2201      	moveq	r2, #1
 8004dbe:	f04f 32ff 	movne.w	r2, #4294967295
 8004dc2:	608a      	str	r2, [r1, #8]
 8004dc4:	6822      	ldr	r2, [r4, #0]
 8004dc6:	f8df 9090 	ldr.w	r9, [pc, #144]	; 8004e58 <_scanf_chars+0xb0>
 8004dca:	06d1      	lsls	r1, r2, #27
 8004dcc:	bf5f      	itttt	pl
 8004dce:	681a      	ldrpl	r2, [r3, #0]
 8004dd0:	1d11      	addpl	r1, r2, #4
 8004dd2:	6019      	strpl	r1, [r3, #0]
 8004dd4:	6816      	ldrpl	r6, [r2, #0]
 8004dd6:	2700      	movs	r7, #0
 8004dd8:	69a0      	ldr	r0, [r4, #24]
 8004dda:	b188      	cbz	r0, 8004e00 <_scanf_chars+0x58>
 8004ddc:	2801      	cmp	r0, #1
 8004dde:	d107      	bne.n	8004df0 <_scanf_chars+0x48>
 8004de0:	682a      	ldr	r2, [r5, #0]
 8004de2:	7811      	ldrb	r1, [r2, #0]
 8004de4:	6962      	ldr	r2, [r4, #20]
 8004de6:	5c52      	ldrb	r2, [r2, r1]
 8004de8:	b952      	cbnz	r2, 8004e00 <_scanf_chars+0x58>
 8004dea:	2f00      	cmp	r7, #0
 8004dec:	d031      	beq.n	8004e52 <_scanf_chars+0xaa>
 8004dee:	e022      	b.n	8004e36 <_scanf_chars+0x8e>
 8004df0:	2802      	cmp	r0, #2
 8004df2:	d120      	bne.n	8004e36 <_scanf_chars+0x8e>
 8004df4:	682b      	ldr	r3, [r5, #0]
 8004df6:	781b      	ldrb	r3, [r3, #0]
 8004df8:	f819 3003 	ldrb.w	r3, [r9, r3]
 8004dfc:	071b      	lsls	r3, r3, #28
 8004dfe:	d41a      	bmi.n	8004e36 <_scanf_chars+0x8e>
 8004e00:	6823      	ldr	r3, [r4, #0]
 8004e02:	06da      	lsls	r2, r3, #27
 8004e04:	bf5e      	ittt	pl
 8004e06:	682b      	ldrpl	r3, [r5, #0]
 8004e08:	781b      	ldrbpl	r3, [r3, #0]
 8004e0a:	f806 3b01 	strbpl.w	r3, [r6], #1
 8004e0e:	682a      	ldr	r2, [r5, #0]
 8004e10:	686b      	ldr	r3, [r5, #4]
 8004e12:	3201      	adds	r2, #1
 8004e14:	602a      	str	r2, [r5, #0]
 8004e16:	68a2      	ldr	r2, [r4, #8]
 8004e18:	3b01      	subs	r3, #1
 8004e1a:	3a01      	subs	r2, #1
 8004e1c:	606b      	str	r3, [r5, #4]
 8004e1e:	3701      	adds	r7, #1
 8004e20:	60a2      	str	r2, [r4, #8]
 8004e22:	b142      	cbz	r2, 8004e36 <_scanf_chars+0x8e>
 8004e24:	2b00      	cmp	r3, #0
 8004e26:	dcd7      	bgt.n	8004dd8 <_scanf_chars+0x30>
 8004e28:	f8d4 3180 	ldr.w	r3, [r4, #384]	; 0x180
 8004e2c:	4629      	mov	r1, r5
 8004e2e:	4640      	mov	r0, r8
 8004e30:	4798      	blx	r3
 8004e32:	2800      	cmp	r0, #0
 8004e34:	d0d0      	beq.n	8004dd8 <_scanf_chars+0x30>
 8004e36:	6823      	ldr	r3, [r4, #0]
 8004e38:	f013 0310 	ands.w	r3, r3, #16
 8004e3c:	d105      	bne.n	8004e4a <_scanf_chars+0xa2>
 8004e3e:	68e2      	ldr	r2, [r4, #12]
 8004e40:	3201      	adds	r2, #1
 8004e42:	60e2      	str	r2, [r4, #12]
 8004e44:	69a2      	ldr	r2, [r4, #24]
 8004e46:	b102      	cbz	r2, 8004e4a <_scanf_chars+0xa2>
 8004e48:	7033      	strb	r3, [r6, #0]
 8004e4a:	6923      	ldr	r3, [r4, #16]
 8004e4c:	443b      	add	r3, r7
 8004e4e:	6123      	str	r3, [r4, #16]
 8004e50:	2000      	movs	r0, #0
 8004e52:	e8bd 83f8 	ldmia.w	sp!, {r3, r4, r5, r6, r7, r8, r9, pc}
 8004e56:	bf00      	nop
 8004e58:	08005950 	.word	0x08005950

08004e5c <_scanf_i>:
 8004e5c:	e92d 4ff0 	stmdb	sp!, {r4, r5, r6, r7, r8, r9, sl, fp, lr}
 8004e60:	4698      	mov	r8, r3
 8004e62:	4b74      	ldr	r3, [pc, #464]	; (8005034 <_scanf_i+0x1d8>)
 8004e64:	460c      	mov	r4, r1
 8004e66:	4682      	mov	sl, r0
 8004e68:	4616      	mov	r6, r2
 8004e6a:	e893 0007 	ldmia.w	r3, {r0, r1, r2}
 8004e6e:	b087      	sub	sp, #28
 8004e70:	ab03      	add	r3, sp, #12
 8004e72:	e883 0007 	stmia.w	r3, {r0, r1, r2}
 8004e76:	4b70      	ldr	r3, [pc, #448]	; (8005038 <_scanf_i+0x1dc>)
 8004e78:	69a1      	ldr	r1, [r4, #24]
 8004e7a:	4a70      	ldr	r2, [pc, #448]	; (800503c <_scanf_i+0x1e0>)
 8004e7c:	2903      	cmp	r1, #3
 8004e7e:	bf18      	it	ne
 8004e80:	461a      	movne	r2, r3
 8004e82:	68a3      	ldr	r3, [r4, #8]
 8004e84:	9201      	str	r2, [sp, #4]
 8004e86:	1e5a      	subs	r2, r3, #1
 8004e88:	f5b2 7fae 	cmp.w	r2, #348	; 0x15c
 8004e8c:	bf88      	it	hi
 8004e8e:	f46f 75ae 	mvnhi.w	r5, #348	; 0x15c
 8004e92:	4627      	mov	r7, r4
 8004e94:	bf82      	ittt	hi
 8004e96:	eb03 0905 	addhi.w	r9, r3, r5
 8004e9a:	f240 135d 	movwhi	r3, #349	; 0x15d
 8004e9e:	60a3      	strhi	r3, [r4, #8]
 8004ea0:	f857 3b1c 	ldr.w	r3, [r7], #28
 8004ea4:	f443 6350 	orr.w	r3, r3, #3328	; 0xd00
 8004ea8:	bf98      	it	ls
 8004eaa:	f04f 0900 	movls.w	r9, #0
 8004eae:	6023      	str	r3, [r4, #0]
 8004eb0:	463d      	mov	r5, r7
 8004eb2:	f04f 0b00 	mov.w	fp, #0
 8004eb6:	6831      	ldr	r1, [r6, #0]
 8004eb8:	ab03      	add	r3, sp, #12
 8004eba:	7809      	ldrb	r1, [r1, #0]
 8004ebc:	f853 002b 	ldr.w	r0, [r3, fp, lsl #2]
 8004ec0:	2202      	movs	r2, #2
 8004ec2:	f7fb f9c5 	bl	8000250 <memchr>
 8004ec6:	b328      	cbz	r0, 8004f14 <_scanf_i+0xb8>
 8004ec8:	f1bb 0f01 	cmp.w	fp, #1
 8004ecc:	d159      	bne.n	8004f82 <_scanf_i+0x126>
 8004ece:	6862      	ldr	r2, [r4, #4]
 8004ed0:	b92a      	cbnz	r2, 8004ede <_scanf_i+0x82>
 8004ed2:	6822      	ldr	r2, [r4, #0]
 8004ed4:	2308      	movs	r3, #8
 8004ed6:	f442 7200 	orr.w	r2, r2, #512	; 0x200
 8004eda:	6063      	str	r3, [r4, #4]
 8004edc:	6022      	str	r2, [r4, #0]
 8004ede:	6822      	ldr	r2, [r4, #0]
 8004ee0:	f422 62a0 	bic.w	r2, r2, #1280	; 0x500
 8004ee4:	6022      	str	r2, [r4, #0]
 8004ee6:	68a2      	ldr	r2, [r4, #8]
 8004ee8:	1e51      	subs	r1, r2, #1
 8004eea:	60a1      	str	r1, [r4, #8]
 8004eec:	b192      	cbz	r2, 8004f14 <_scanf_i+0xb8>
 8004eee:	6832      	ldr	r2, [r6, #0]
 8004ef0:	1c51      	adds	r1, r2, #1
 8004ef2:	6031      	str	r1, [r6, #0]
 8004ef4:	7812      	ldrb	r2, [r2, #0]
 8004ef6:	f805 2b01 	strb.w	r2, [r5], #1
 8004efa:	6872      	ldr	r2, [r6, #4]
 8004efc:	3a01      	subs	r2, #1
 8004efe:	2a00      	cmp	r2, #0
 8004f00:	6072      	str	r2, [r6, #4]
 8004f02:	dc07      	bgt.n	8004f14 <_scanf_i+0xb8>
 8004f04:	f8d4 2180 	ldr.w	r2, [r4, #384]	; 0x180
 8004f08:	4631      	mov	r1, r6
 8004f0a:	4650      	mov	r0, sl
 8004f0c:	4790      	blx	r2
 8004f0e:	2800      	cmp	r0, #0
 8004f10:	f040 8085 	bne.w	800501e <_scanf_i+0x1c2>
 8004f14:	f10b 0b01 	add.w	fp, fp, #1
 8004f18:	f1bb 0f03 	cmp.w	fp, #3
 8004f1c:	d1cb      	bne.n	8004eb6 <_scanf_i+0x5a>
 8004f1e:	6863      	ldr	r3, [r4, #4]
 8004f20:	b90b      	cbnz	r3, 8004f26 <_scanf_i+0xca>
 8004f22:	230a      	movs	r3, #10
 8004f24:	6063      	str	r3, [r4, #4]
 8004f26:	6863      	ldr	r3, [r4, #4]
 8004f28:	4945      	ldr	r1, [pc, #276]	; (8005040 <_scanf_i+0x1e4>)
 8004f2a:	6960      	ldr	r0, [r4, #20]
 8004f2c:	1ac9      	subs	r1, r1, r3
 8004f2e:	f000 f999 	bl	8005264 <__sccl>
 8004f32:	f04f 0b00 	mov.w	fp, #0
 8004f36:	68a3      	ldr	r3, [r4, #8]
 8004f38:	6822      	ldr	r2, [r4, #0]
 8004f3a:	2b00      	cmp	r3, #0
 8004f3c:	d03d      	beq.n	8004fba <_scanf_i+0x15e>
 8004f3e:	6831      	ldr	r1, [r6, #0]
 8004f40:	6960      	ldr	r0, [r4, #20]
 8004f42:	f891 c000 	ldrb.w	ip, [r1]
 8004f46:	f810 000c 	ldrb.w	r0, [r0, ip]
 8004f4a:	2800      	cmp	r0, #0
 8004f4c:	d035      	beq.n	8004fba <_scanf_i+0x15e>
 8004f4e:	f1bc 0f30 	cmp.w	ip, #48	; 0x30
 8004f52:	d124      	bne.n	8004f9e <_scanf_i+0x142>
 8004f54:	0510      	lsls	r0, r2, #20
 8004f56:	d522      	bpl.n	8004f9e <_scanf_i+0x142>
 8004f58:	f10b 0b01 	add.w	fp, fp, #1
 8004f5c:	f1b9 0f00 	cmp.w	r9, #0
 8004f60:	d003      	beq.n	8004f6a <_scanf_i+0x10e>
 8004f62:	3301      	adds	r3, #1
 8004f64:	f109 39ff 	add.w	r9, r9, #4294967295
 8004f68:	60a3      	str	r3, [r4, #8]
 8004f6a:	6873      	ldr	r3, [r6, #4]
 8004f6c:	3b01      	subs	r3, #1
 8004f6e:	2b00      	cmp	r3, #0
 8004f70:	6073      	str	r3, [r6, #4]
 8004f72:	dd1b      	ble.n	8004fac <_scanf_i+0x150>
 8004f74:	6833      	ldr	r3, [r6, #0]
 8004f76:	3301      	adds	r3, #1
 8004f78:	6033      	str	r3, [r6, #0]
 8004f7a:	68a3      	ldr	r3, [r4, #8]
 8004f7c:	3b01      	subs	r3, #1
 8004f7e:	60a3      	str	r3, [r4, #8]
 8004f80:	e7d9      	b.n	8004f36 <_scanf_i+0xda>
 8004f82:	f1bb 0f02 	cmp.w	fp, #2
 8004f86:	d1ae      	bne.n	8004ee6 <_scanf_i+0x8a>
 8004f88:	6822      	ldr	r2, [r4, #0]
 8004f8a:	f402 61c0 	and.w	r1, r2, #1536	; 0x600
 8004f8e:	f5b1 7f00 	cmp.w	r1, #512	; 0x200
 8004f92:	d1bf      	bne.n	8004f14 <_scanf_i+0xb8>
 8004f94:	2310      	movs	r3, #16
 8004f96:	6063      	str	r3, [r4, #4]
 8004f98:	f442 7280 	orr.w	r2, r2, #256	; 0x100
 8004f9c:	e7a2      	b.n	8004ee4 <_scanf_i+0x88>
 8004f9e:	f422 6210 	bic.w	r2, r2, #2304	; 0x900
 8004fa2:	6022      	str	r2, [r4, #0]
 8004fa4:	780b      	ldrb	r3, [r1, #0]
 8004fa6:	f805 3b01 	strb.w	r3, [r5], #1
 8004faa:	e7de      	b.n	8004f6a <_scanf_i+0x10e>
 8004fac:	f8d4 3180 	ldr.w	r3, [r4, #384]	; 0x180
 8004fb0:	4631      	mov	r1, r6
 8004fb2:	4650      	mov	r0, sl
 8004fb4:	4798      	blx	r3
 8004fb6:	2800      	cmp	r0, #0
 8004fb8:	d0df      	beq.n	8004f7a <_scanf_i+0x11e>
 8004fba:	6823      	ldr	r3, [r4, #0]
 8004fbc:	05d9      	lsls	r1, r3, #23
 8004fbe:	d50d      	bpl.n	8004fdc <_scanf_i+0x180>
 8004fc0:	42bd      	cmp	r5, r7
 8004fc2:	d909      	bls.n	8004fd8 <_scanf_i+0x17c>
 8004fc4:	f815 1c01 	ldrb.w	r1, [r5, #-1]
 8004fc8:	f8d4 317c 	ldr.w	r3, [r4, #380]	; 0x17c
 8004fcc:	4632      	mov	r2, r6
 8004fce:	4650      	mov	r0, sl
 8004fd0:	4798      	blx	r3
 8004fd2:	f105 39ff 	add.w	r9, r5, #4294967295
 8004fd6:	464d      	mov	r5, r9
 8004fd8:	42bd      	cmp	r5, r7
 8004fda:	d028      	beq.n	800502e <_scanf_i+0x1d2>
 8004fdc:	6822      	ldr	r2, [r4, #0]
 8004fde:	f012 0210 	ands.w	r2, r2, #16
 8004fe2:	d113      	bne.n	800500c <_scanf_i+0x1b0>
 8004fe4:	702a      	strb	r2, [r5, #0]
 8004fe6:	6863      	ldr	r3, [r4, #4]
 8004fe8:	9e01      	ldr	r6, [sp, #4]
 8004fea:	4639      	mov	r1, r7
 8004fec:	4650      	mov	r0, sl
 8004fee:	47b0      	blx	r6
 8004ff0:	f8d8 3000 	ldr.w	r3, [r8]
 8004ff4:	6821      	ldr	r1, [r4, #0]
 8004ff6:	1d1a      	adds	r2, r3, #4
 8004ff8:	f8c8 2000 	str.w	r2, [r8]
 8004ffc:	f011 0f20 	tst.w	r1, #32
 8005000:	681b      	ldr	r3, [r3, #0]
 8005002:	d00f      	beq.n	8005024 <_scanf_i+0x1c8>
 8005004:	6018      	str	r0, [r3, #0]
 8005006:	68e3      	ldr	r3, [r4, #12]
 8005008:	3301      	adds	r3, #1
 800500a:	60e3      	str	r3, [r4, #12]
 800500c:	6923      	ldr	r3, [r4, #16]
 800500e:	1bed      	subs	r5, r5, r7
 8005010:	445d      	add	r5, fp
 8005012:	442b      	add	r3, r5
 8005014:	6123      	str	r3, [r4, #16]
 8005016:	2000      	movs	r0, #0
 8005018:	b007      	add	sp, #28
 800501a:	e8bd 8ff0 	ldmia.w	sp!, {r4, r5, r6, r7, r8, r9, sl, fp, pc}
 800501e:	f04f 0b00 	mov.w	fp, #0
 8005022:	e7ca      	b.n	8004fba <_scanf_i+0x15e>
 8005024:	07ca      	lsls	r2, r1, #31
 8005026:	bf4c      	ite	mi
 8005028:	8018      	strhmi	r0, [r3, #0]
 800502a:	6018      	strpl	r0, [r3, #0]
 800502c:	e7eb      	b.n	8005006 <_scanf_i+0x1aa>
 800502e:	2001      	movs	r0, #1
 8005030:	e7f2      	b.n	8005018 <_scanf_i+0x1bc>
 8005032:	bf00      	nop
 8005034:	08005644 	.word	0x08005644
 8005038:	08005619 	.word	0x08005619
 800503c:	08005531 	.word	0x08005531
 8005040:	08005944 	.word	0x08005944

08005044 <__sflush_r>:
 8005044:	898a      	ldrh	r2, [r1, #12]
 8005046:	e92d 41f0 	stmdb	sp!, {r4, r5, r6, r7, r8, lr}
 800504a:	4605      	mov	r5, r0
 800504c:	0710      	lsls	r0, r2, #28
 800504e:	460c      	mov	r4, r1
 8005050:	d458      	bmi.n	8005104 <__sflush_r+0xc0>
 8005052:	684b      	ldr	r3, [r1, #4]
 8005054:	2b00      	cmp	r3, #0
 8005056:	dc05      	bgt.n	8005064 <__sflush_r+0x20>
 8005058:	6c0b      	ldr	r3, [r1, #64]	; 0x40
 800505a:	2b00      	cmp	r3, #0
 800505c:	dc02      	bgt.n	8005064 <__sflush_r+0x20>
 800505e:	2000      	movs	r0, #0
 8005060:	e8bd 81f0 	ldmia.w	sp!, {r4, r5, r6, r7, r8, pc}
 8005064:	6ae6      	ldr	r6, [r4, #44]	; 0x2c
 8005066:	2e00      	cmp	r6, #0
 8005068:	d0f9      	beq.n	800505e <__sflush_r+0x1a>
 800506a:	2300      	movs	r3, #0
 800506c:	f412 5280 	ands.w	r2, r2, #4096	; 0x1000
 8005070:	682f      	ldr	r7, [r5, #0]
 8005072:	6a21      	ldr	r1, [r4, #32]
 8005074:	602b      	str	r3, [r5, #0]
 8005076:	d032      	beq.n	80050de <__sflush_r+0x9a>
 8005078:	6d60      	ldr	r0, [r4, #84]	; 0x54
 800507a:	89a3      	ldrh	r3, [r4, #12]
 800507c:	075a      	lsls	r2, r3, #29
 800507e:	d505      	bpl.n	800508c <__sflush_r+0x48>
 8005080:	6863      	ldr	r3, [r4, #4]
 8005082:	1ac0      	subs	r0, r0, r3
 8005084:	6b63      	ldr	r3, [r4, #52]	; 0x34
 8005086:	b10b      	cbz	r3, 800508c <__sflush_r+0x48>
 8005088:	6c23      	ldr	r3, [r4, #64]	; 0x40
 800508a:	1ac0      	subs	r0, r0, r3
 800508c:	2300      	movs	r3, #0
 800508e:	4602      	mov	r2, r0
 8005090:	6ae6      	ldr	r6, [r4, #44]	; 0x2c
 8005092:	6a21      	ldr	r1, [r4, #32]
 8005094:	4628      	mov	r0, r5
 8005096:	47b0      	blx	r6
 8005098:	1c43      	adds	r3, r0, #1
 800509a:	89a3      	ldrh	r3, [r4, #12]
 800509c:	d106      	bne.n	80050ac <__sflush_r+0x68>
 800509e:	6829      	ldr	r1, [r5, #0]
 80050a0:	291d      	cmp	r1, #29
 80050a2:	d82b      	bhi.n	80050fc <__sflush_r+0xb8>
 80050a4:	4a29      	ldr	r2, [pc, #164]	; (800514c <__sflush_r+0x108>)
 80050a6:	410a      	asrs	r2, r1
 80050a8:	07d6      	lsls	r6, r2, #31
 80050aa:	d427      	bmi.n	80050fc <__sflush_r+0xb8>
 80050ac:	2200      	movs	r2, #0
 80050ae:	6062      	str	r2, [r4, #4]
 80050b0:	04d9      	lsls	r1, r3, #19
 80050b2:	6922      	ldr	r2, [r4, #16]
 80050b4:	6022      	str	r2, [r4, #0]
 80050b6:	d504      	bpl.n	80050c2 <__sflush_r+0x7e>
 80050b8:	1c42      	adds	r2, r0, #1
 80050ba:	d101      	bne.n	80050c0 <__sflush_r+0x7c>
 80050bc:	682b      	ldr	r3, [r5, #0]
 80050be:	b903      	cbnz	r3, 80050c2 <__sflush_r+0x7e>
 80050c0:	6560      	str	r0, [r4, #84]	; 0x54
 80050c2:	6b61      	ldr	r1, [r4, #52]	; 0x34
 80050c4:	602f      	str	r7, [r5, #0]
 80050c6:	2900      	cmp	r1, #0
 80050c8:	d0c9      	beq.n	800505e <__sflush_r+0x1a>
 80050ca:	f104 0344 	add.w	r3, r4, #68	; 0x44
 80050ce:	4299      	cmp	r1, r3
 80050d0:	d002      	beq.n	80050d8 <__sflush_r+0x94>
 80050d2:	4628      	mov	r0, r5
 80050d4:	f7ff f8ca 	bl	800426c <_free_r>
 80050d8:	2000      	movs	r0, #0
 80050da:	6360      	str	r0, [r4, #52]	; 0x34
 80050dc:	e7c0      	b.n	8005060 <__sflush_r+0x1c>
 80050de:	2301      	movs	r3, #1
 80050e0:	4628      	mov	r0, r5
 80050e2:	47b0      	blx	r6
 80050e4:	1c41      	adds	r1, r0, #1
 80050e6:	d1c8      	bne.n	800507a <__sflush_r+0x36>
 80050e8:	682b      	ldr	r3, [r5, #0]
 80050ea:	2b00      	cmp	r3, #0
 80050ec:	d0c5      	beq.n	800507a <__sflush_r+0x36>
 80050ee:	2b1d      	cmp	r3, #29
 80050f0:	d001      	beq.n	80050f6 <__sflush_r+0xb2>
 80050f2:	2b16      	cmp	r3, #22
 80050f4:	d101      	bne.n	80050fa <__sflush_r+0xb6>
 80050f6:	602f      	str	r7, [r5, #0]
 80050f8:	e7b1      	b.n	800505e <__sflush_r+0x1a>
 80050fa:	89a3      	ldrh	r3, [r4, #12]
 80050fc:	f043 0340 	orr.w	r3, r3, #64	; 0x40
 8005100:	81a3      	strh	r3, [r4, #12]
 8005102:	e7ad      	b.n	8005060 <__sflush_r+0x1c>
 8005104:	690f      	ldr	r7, [r1, #16]
 8005106:	2f00      	cmp	r7, #0
 8005108:	d0a9      	beq.n	800505e <__sflush_r+0x1a>
 800510a:	0793      	lsls	r3, r2, #30
 800510c:	680e      	ldr	r6, [r1, #0]
 800510e:	bf08      	it	eq
 8005110:	694b      	ldreq	r3, [r1, #20]
 8005112:	600f      	str	r7, [r1, #0]
 8005114:	bf18      	it	ne
 8005116:	2300      	movne	r3, #0
 8005118:	eba6 0807 	sub.w	r8, r6, r7
 800511c:	608b      	str	r3, [r1, #8]
 800511e:	f1b8 0f00 	cmp.w	r8, #0
 8005122:	dd9c      	ble.n	800505e <__sflush_r+0x1a>
 8005124:	6a21      	ldr	r1, [r4, #32]
 8005126:	6aa6      	ldr	r6, [r4, #40]	; 0x28
 8005128:	4643      	mov	r3, r8
 800512a:	463a      	mov	r2, r7
 800512c:	4628      	mov	r0, r5
 800512e:	47b0      	blx	r6
 8005130:	2800      	cmp	r0, #0
 8005132:	dc06      	bgt.n	8005142 <__sflush_r+0xfe>
 8005134:	89a3      	ldrh	r3, [r4, #12]
 8005136:	f043 0340 	orr.w	r3, r3, #64	; 0x40
 800513a:	81a3      	strh	r3, [r4, #12]
 800513c:	f04f 30ff 	mov.w	r0, #4294967295
 8005140:	e78e      	b.n	8005060 <__sflush_r+0x1c>
 8005142:	4407      	add	r7, r0
 8005144:	eba8 0800 	sub.w	r8, r8, r0
 8005148:	e7e9      	b.n	800511e <__sflush_r+0xda>
 800514a:	bf00      	nop
 800514c:	dfbffffe 	.word	0xdfbffffe

08005150 <_fflush_r>:
 8005150:	b538      	push	{r3, r4, r5, lr}
 8005152:	690b      	ldr	r3, [r1, #16]
 8005154:	4605      	mov	r5, r0
 8005156:	460c      	mov	r4, r1
 8005158:	b913      	cbnz	r3, 8005160 <_fflush_r+0x10>
 800515a:	2500      	movs	r5, #0
 800515c:	4628      	mov	r0, r5
 800515e:	bd38      	pop	{r3, r4, r5, pc}
 8005160:	b118      	cbz	r0, 800516a <_fflush_r+0x1a>
 8005162:	6a03      	ldr	r3, [r0, #32]
 8005164:	b90b      	cbnz	r3, 800516a <_fflush_r+0x1a>
 8005166:	f7fe fe4d 	bl	8003e04 <__sinit>
 800516a:	f9b4 300c 	ldrsh.w	r3, [r4, #12]
 800516e:	2b00      	cmp	r3, #0
 8005170:	d0f3      	beq.n	800515a <_fflush_r+0xa>
 8005172:	6e62      	ldr	r2, [r4, #100]	; 0x64
 8005174:	07d0      	lsls	r0, r2, #31
 8005176:	d404      	bmi.n	8005182 <_fflush_r+0x32>
 8005178:	0599      	lsls	r1, r3, #22
 800517a:	d402      	bmi.n	8005182 <_fflush_r+0x32>
 800517c:	6da0      	ldr	r0, [r4, #88]	; 0x58
 800517e:	f7ff f872 	bl	8004266 <__retarget_lock_acquire_recursive>
 8005182:	4628      	mov	r0, r5
 8005184:	4621      	mov	r1, r4
 8005186:	f7ff ff5d 	bl	8005044 <__sflush_r>
 800518a:	6e63      	ldr	r3, [r4, #100]	; 0x64
 800518c:	07da      	lsls	r2, r3, #31
 800518e:	4605      	mov	r5, r0
 8005190:	d4e4      	bmi.n	800515c <_fflush_r+0xc>
 8005192:	89a3      	ldrh	r3, [r4, #12]
 8005194:	059b      	lsls	r3, r3, #22
 8005196:	d4e1      	bmi.n	800515c <_fflush_r+0xc>
 8005198:	6da0      	ldr	r0, [r4, #88]	; 0x58
 800519a:	f7ff f865 	bl	8004268 <__retarget_lock_release_recursive>
 800519e:	e7dd      	b.n	800515c <_fflush_r+0xc>

080051a0 <__swhatbuf_r>:
 80051a0:	b570      	push	{r4, r5, r6, lr}
 80051a2:	460c      	mov	r4, r1
 80051a4:	f9b1 100e 	ldrsh.w	r1, [r1, #14]
 80051a8:	2900      	cmp	r1, #0
 80051aa:	b096      	sub	sp, #88	; 0x58
 80051ac:	4615      	mov	r5, r2
 80051ae:	461e      	mov	r6, r3
 80051b0:	da0d      	bge.n	80051ce <__swhatbuf_r+0x2e>
 80051b2:	89a3      	ldrh	r3, [r4, #12]
 80051b4:	f013 0f80 	tst.w	r3, #128	; 0x80
 80051b8:	f04f 0100 	mov.w	r1, #0
 80051bc:	bf0c      	ite	eq
 80051be:	f44f 6380 	moveq.w	r3, #1024	; 0x400
 80051c2:	2340      	movne	r3, #64	; 0x40
 80051c4:	2000      	movs	r0, #0
 80051c6:	6031      	str	r1, [r6, #0]
 80051c8:	602b      	str	r3, [r5, #0]
 80051ca:	b016      	add	sp, #88	; 0x58
 80051cc:	bd70      	pop	{r4, r5, r6, pc}
 80051ce:	466a      	mov	r2, sp
 80051d0:	f000 f8bc 	bl	800534c <_fstat_r>
 80051d4:	2800      	cmp	r0, #0
 80051d6:	dbec      	blt.n	80051b2 <__swhatbuf_r+0x12>
 80051d8:	9901      	ldr	r1, [sp, #4]
 80051da:	f401 4170 	and.w	r1, r1, #61440	; 0xf000
 80051de:	f5a1 5300 	sub.w	r3, r1, #8192	; 0x2000
 80051e2:	4259      	negs	r1, r3
 80051e4:	4159      	adcs	r1, r3
 80051e6:	f44f 6380 	mov.w	r3, #1024	; 0x400
 80051ea:	e7eb      	b.n	80051c4 <__swhatbuf_r+0x24>

080051ec <__smakebuf_r>:
 80051ec:	898b      	ldrh	r3, [r1, #12]
 80051ee:	b573      	push	{r0, r1, r4, r5, r6, lr}
 80051f0:	079d      	lsls	r5, r3, #30
 80051f2:	4606      	mov	r6, r0
 80051f4:	460c      	mov	r4, r1
 80051f6:	d507      	bpl.n	8005208 <__smakebuf_r+0x1c>
 80051f8:	f104 0347 	add.w	r3, r4, #71	; 0x47
 80051fc:	6023      	str	r3, [r4, #0]
 80051fe:	6123      	str	r3, [r4, #16]
 8005200:	2301      	movs	r3, #1
 8005202:	6163      	str	r3, [r4, #20]
 8005204:	b002      	add	sp, #8
 8005206:	bd70      	pop	{r4, r5, r6, pc}
 8005208:	ab01      	add	r3, sp, #4
 800520a:	466a      	mov	r2, sp
 800520c:	f7ff ffc8 	bl	80051a0 <__swhatbuf_r>
 8005210:	9900      	ldr	r1, [sp, #0]
 8005212:	4605      	mov	r5, r0
 8005214:	4630      	mov	r0, r6
 8005216:	f7ff f895 	bl	8004344 <_malloc_r>
 800521a:	b948      	cbnz	r0, 8005230 <__smakebuf_r+0x44>
 800521c:	f9b4 300c 	ldrsh.w	r3, [r4, #12]
 8005220:	059a      	lsls	r2, r3, #22
 8005222:	d4ef      	bmi.n	8005204 <__smakebuf_r+0x18>
 8005224:	f023 0303 	bic.w	r3, r3, #3
 8005228:	f043 0302 	orr.w	r3, r3, #2
 800522c:	81a3      	strh	r3, [r4, #12]
 800522e:	e7e3      	b.n	80051f8 <__smakebuf_r+0xc>
 8005230:	89a3      	ldrh	r3, [r4, #12]
 8005232:	6020      	str	r0, [r4, #0]
 8005234:	f043 0380 	orr.w	r3, r3, #128	; 0x80
 8005238:	81a3      	strh	r3, [r4, #12]
 800523a:	9b00      	ldr	r3, [sp, #0]
 800523c:	6163      	str	r3, [r4, #20]
 800523e:	9b01      	ldr	r3, [sp, #4]
 8005240:	6120      	str	r0, [r4, #16]
 8005242:	b15b      	cbz	r3, 800525c <__smakebuf_r+0x70>
 8005244:	f9b4 100e 	ldrsh.w	r1, [r4, #14]
 8005248:	4630      	mov	r0, r6
 800524a:	f000 f891 	bl	8005370 <_isatty_r>
 800524e:	b128      	cbz	r0, 800525c <__smakebuf_r+0x70>
 8005250:	89a3      	ldrh	r3, [r4, #12]
 8005252:	f023 0303 	bic.w	r3, r3, #3
 8005256:	f043 0301 	orr.w	r3, r3, #1
 800525a:	81a3      	strh	r3, [r4, #12]
 800525c:	89a3      	ldrh	r3, [r4, #12]
 800525e:	431d      	orrs	r5, r3
 8005260:	81a5      	strh	r5, [r4, #12]
 8005262:	e7cf      	b.n	8005204 <__smakebuf_r+0x18>

08005264 <__sccl>:
 8005264:	b570      	push	{r4, r5, r6, lr}
 8005266:	780b      	ldrb	r3, [r1, #0]
 8005268:	4604      	mov	r4, r0
 800526a:	2b5e      	cmp	r3, #94	; 0x5e
 800526c:	bf0b      	itete	eq
 800526e:	784b      	ldrbeq	r3, [r1, #1]
 8005270:	1c4a      	addne	r2, r1, #1
 8005272:	1c8a      	addeq	r2, r1, #2
 8005274:	2100      	movne	r1, #0
 8005276:	bf08      	it	eq
 8005278:	2101      	moveq	r1, #1
 800527a:	3801      	subs	r0, #1
 800527c:	f104 05ff 	add.w	r5, r4, #255	; 0xff
 8005280:	f800 1f01 	strb.w	r1, [r0, #1]!
 8005284:	42a8      	cmp	r0, r5
 8005286:	d1fb      	bne.n	8005280 <__sccl+0x1c>
 8005288:	b90b      	cbnz	r3, 800528e <__sccl+0x2a>
 800528a:	1e50      	subs	r0, r2, #1
 800528c:	bd70      	pop	{r4, r5, r6, pc}
 800528e:	f081 0101 	eor.w	r1, r1, #1
 8005292:	54e1      	strb	r1, [r4, r3]
 8005294:	4610      	mov	r0, r2
 8005296:	4602      	mov	r2, r0
 8005298:	f812 5b01 	ldrb.w	r5, [r2], #1
 800529c:	2d2d      	cmp	r5, #45	; 0x2d
 800529e:	d005      	beq.n	80052ac <__sccl+0x48>
 80052a0:	2d5d      	cmp	r5, #93	; 0x5d
 80052a2:	d016      	beq.n	80052d2 <__sccl+0x6e>
 80052a4:	2d00      	cmp	r5, #0
 80052a6:	d0f1      	beq.n	800528c <__sccl+0x28>
 80052a8:	462b      	mov	r3, r5
 80052aa:	e7f2      	b.n	8005292 <__sccl+0x2e>
 80052ac:	7846      	ldrb	r6, [r0, #1]
 80052ae:	2e5d      	cmp	r6, #93	; 0x5d
 80052b0:	d0fa      	beq.n	80052a8 <__sccl+0x44>
 80052b2:	42b3      	cmp	r3, r6
 80052b4:	dcf8      	bgt.n	80052a8 <__sccl+0x44>
 80052b6:	3002      	adds	r0, #2
 80052b8:	461a      	mov	r2, r3
 80052ba:	3201      	adds	r2, #1
 80052bc:	4296      	cmp	r6, r2
 80052be:	54a1      	strb	r1, [r4, r2]
 80052c0:	dcfb      	bgt.n	80052ba <__sccl+0x56>
 80052c2:	1af2      	subs	r2, r6, r3
 80052c4:	3a01      	subs	r2, #1
 80052c6:	1c5d      	adds	r5, r3, #1
 80052c8:	42b3      	cmp	r3, r6
 80052ca:	bfa8      	it	ge
 80052cc:	2200      	movge	r2, #0
 80052ce:	18ab      	adds	r3, r5, r2
 80052d0:	e7e1      	b.n	8005296 <__sccl+0x32>
 80052d2:	4610      	mov	r0, r2
 80052d4:	e7da      	b.n	800528c <__sccl+0x28>

080052d6 <__submore>:
 80052d6:	e92d 41f0 	stmdb	sp!, {r4, r5, r6, r7, r8, lr}
 80052da:	460c      	mov	r4, r1
 80052dc:	6b49      	ldr	r1, [r1, #52]	; 0x34
 80052de:	f104 0344 	add.w	r3, r4, #68	; 0x44
 80052e2:	4299      	cmp	r1, r3
 80052e4:	d11d      	bne.n	8005322 <__submore+0x4c>
 80052e6:	f44f 6180 	mov.w	r1, #1024	; 0x400
 80052ea:	f7ff f82b 	bl	8004344 <_malloc_r>
 80052ee:	b918      	cbnz	r0, 80052f8 <__submore+0x22>
 80052f0:	f04f 30ff 	mov.w	r0, #4294967295
 80052f4:	e8bd 81f0 	ldmia.w	sp!, {r4, r5, r6, r7, r8, pc}
 80052f8:	f44f 6380 	mov.w	r3, #1024	; 0x400
 80052fc:	63a3      	str	r3, [r4, #56]	; 0x38
 80052fe:	f894 3046 	ldrb.w	r3, [r4, #70]	; 0x46
 8005302:	6360      	str	r0, [r4, #52]	; 0x34
 8005304:	f880 33ff 	strb.w	r3, [r0, #1023]	; 0x3ff
 8005308:	f894 3045 	ldrb.w	r3, [r4, #69]	; 0x45
 800530c:	f880 33fe 	strb.w	r3, [r0, #1022]	; 0x3fe
 8005310:	f894 3044 	ldrb.w	r3, [r4, #68]	; 0x44
 8005314:	f880 33fd 	strb.w	r3, [r0, #1021]	; 0x3fd
 8005318:	f200 30fd 	addw	r0, r0, #1021	; 0x3fd
 800531c:	6020      	str	r0, [r4, #0]
 800531e:	2000      	movs	r0, #0
 8005320:	e7e8      	b.n	80052f4 <__submore+0x1e>
 8005322:	6ba6      	ldr	r6, [r4, #56]	; 0x38
 8005324:	0077      	lsls	r7, r6, #1
 8005326:	463a      	mov	r2, r7
 8005328:	f000 f850 	bl	80053cc <_realloc_r>
 800532c:	4605      	mov	r5, r0
 800532e:	2800      	cmp	r0, #0
 8005330:	d0de      	beq.n	80052f0 <__submore+0x1a>
 8005332:	eb00 0806 	add.w	r8, r0, r6
 8005336:	4601      	mov	r1, r0
 8005338:	4632      	mov	r2, r6
 800533a:	4640      	mov	r0, r8
 800533c:	f000 f838 	bl	80053b0 <memcpy>
 8005340:	e9c4 570d 	strd	r5, r7, [r4, #52]	; 0x34
 8005344:	f8c4 8000 	str.w	r8, [r4]
 8005348:	e7e9      	b.n	800531e <__submore+0x48>
	...

0800534c <_fstat_r>:
 800534c:	b538      	push	{r3, r4, r5, lr}
 800534e:	4d07      	ldr	r5, [pc, #28]	; (800536c <_fstat_r+0x20>)
 8005350:	2300      	movs	r3, #0
 8005352:	4604      	mov	r4, r0
 8005354:	4608      	mov	r0, r1
 8005356:	4611      	mov	r1, r2
 8005358:	602b      	str	r3, [r5, #0]
 800535a:	f7fb fbc2 	bl	8000ae2 <_fstat>
 800535e:	1c43      	adds	r3, r0, #1
 8005360:	d102      	bne.n	8005368 <_fstat_r+0x1c>
 8005362:	682b      	ldr	r3, [r5, #0]
 8005364:	b103      	cbz	r3, 8005368 <_fstat_r+0x1c>
 8005366:	6023      	str	r3, [r4, #0]
 8005368:	bd38      	pop	{r3, r4, r5, pc}
 800536a:	bf00      	nop
 800536c:	20003330 	.word	0x20003330

08005370 <_isatty_r>:
 8005370:	b538      	push	{r3, r4, r5, lr}
 8005372:	4d06      	ldr	r5, [pc, #24]	; (800538c <_isatty_r+0x1c>)
 8005374:	2300      	movs	r3, #0
 8005376:	4604      	mov	r4, r0
 8005378:	4608      	mov	r0, r1
 800537a:	602b      	str	r3, [r5, #0]
 800537c:	f7fb fbb6 	bl	8000aec <_isatty>
 8005380:	1c43      	adds	r3, r0, #1
 8005382:	d102      	bne.n	800538a <_isatty_r+0x1a>
 8005384:	682b      	ldr	r3, [r5, #0]
 8005386:	b103      	cbz	r3, 800538a <_isatty_r+0x1a>
 8005388:	6023      	str	r3, [r4, #0]
 800538a:	bd38      	pop	{r3, r4, r5, pc}
 800538c:	20003330 	.word	0x20003330

08005390 <_sbrk_r>:
 8005390:	b538      	push	{r3, r4, r5, lr}
 8005392:	4d06      	ldr	r5, [pc, #24]	; (80053ac <_sbrk_r+0x1c>)
 8005394:	2300      	movs	r3, #0
 8005396:	4604      	mov	r4, r0
 8005398:	4608      	mov	r0, r1
 800539a:	602b      	str	r3, [r5, #0]
 800539c:	f7fb fbaa 	bl	8000af4 <_sbrk>
 80053a0:	1c43      	adds	r3, r0, #1
 80053a2:	d102      	bne.n	80053aa <_sbrk_r+0x1a>
 80053a4:	682b      	ldr	r3, [r5, #0]
 80053a6:	b103      	cbz	r3, 80053aa <_sbrk_r+0x1a>
 80053a8:	6023      	str	r3, [r4, #0]
 80053aa:	bd38      	pop	{r3, r4, r5, pc}
 80053ac:	20003330 	.word	0x20003330

080053b0 <memcpy>:
 80053b0:	440a      	add	r2, r1
 80053b2:	4291      	cmp	r1, r2
 80053b4:	f100 33ff 	add.w	r3, r0, #4294967295
 80053b8:	d100      	bne.n	80053bc <memcpy+0xc>
 80053ba:	4770      	bx	lr
 80053bc:	b510      	push	{r4, lr}
 80053be:	f811 4b01 	ldrb.w	r4, [r1], #1
 80053c2:	f803 4f01 	strb.w	r4, [r3, #1]!
 80053c6:	4291      	cmp	r1, r2
 80053c8:	d1f9      	bne.n	80053be <memcpy+0xe>
 80053ca:	bd10      	pop	{r4, pc}

080053cc <_realloc_r>:
 80053cc:	e92d 41f0 	stmdb	sp!, {r4, r5, r6, r7, r8, lr}
 80053d0:	4680      	mov	r8, r0
 80053d2:	4614      	mov	r4, r2
 80053d4:	460e      	mov	r6, r1
 80053d6:	b921      	cbnz	r1, 80053e2 <_realloc_r+0x16>
 80053d8:	e8bd 41f0 	ldmia.w	sp!, {r4, r5, r6, r7, r8, lr}
 80053dc:	4611      	mov	r1, r2
 80053de:	f7fe bfb1 	b.w	8004344 <_malloc_r>
 80053e2:	b92a      	cbnz	r2, 80053f0 <_realloc_r+0x24>
 80053e4:	f7fe ff42 	bl	800426c <_free_r>
 80053e8:	4625      	mov	r5, r4
 80053ea:	4628      	mov	r0, r5
 80053ec:	e8bd 81f0 	ldmia.w	sp!, {r4, r5, r6, r7, r8, pc}
 80053f0:	f000 f914 	bl	800561c <_malloc_usable_size_r>
 80053f4:	4284      	cmp	r4, r0
 80053f6:	4607      	mov	r7, r0
 80053f8:	d802      	bhi.n	8005400 <_realloc_r+0x34>
 80053fa:	ebb4 0f50 	cmp.w	r4, r0, lsr #1
 80053fe:	d812      	bhi.n	8005426 <_realloc_r+0x5a>
 8005400:	4621      	mov	r1, r4
 8005402:	4640      	mov	r0, r8
 8005404:	f7fe ff9e 	bl	8004344 <_malloc_r>
 8005408:	4605      	mov	r5, r0
 800540a:	2800      	cmp	r0, #0
 800540c:	d0ed      	beq.n	80053ea <_realloc_r+0x1e>
 800540e:	42bc      	cmp	r4, r7
 8005410:	4622      	mov	r2, r4
 8005412:	4631      	mov	r1, r6
 8005414:	bf28      	it	cs
 8005416:	463a      	movcs	r2, r7
 8005418:	f7ff ffca 	bl	80053b0 <memcpy>
 800541c:	4631      	mov	r1, r6
 800541e:	4640      	mov	r0, r8
 8005420:	f7fe ff24 	bl	800426c <_free_r>
 8005424:	e7e1      	b.n	80053ea <_realloc_r+0x1e>
 8005426:	4635      	mov	r5, r6
 8005428:	e7df      	b.n	80053ea <_realloc_r+0x1e>
	...

0800542c <_strtol_l.constprop.0>:
 800542c:	2b01      	cmp	r3, #1
 800542e:	e92d 47f0 	stmdb	sp!, {r4, r5, r6, r7, r8, r9, sl, lr}
 8005432:	d001      	beq.n	8005438 <_strtol_l.constprop.0+0xc>
 8005434:	2b24      	cmp	r3, #36	; 0x24
 8005436:	d906      	bls.n	8005446 <_strtol_l.constprop.0+0x1a>
 8005438:	f7fe feea 	bl	8004210 <__errno>
 800543c:	2316      	movs	r3, #22
 800543e:	6003      	str	r3, [r0, #0]
 8005440:	2000      	movs	r0, #0
 8005442:	e8bd 87f0 	ldmia.w	sp!, {r4, r5, r6, r7, r8, r9, sl, pc}
 8005446:	f8df c0e4 	ldr.w	ip, [pc, #228]	; 800552c <_strtol_l.constprop.0+0x100>
 800544a:	460d      	mov	r5, r1
 800544c:	462e      	mov	r6, r5
 800544e:	f815 4b01 	ldrb.w	r4, [r5], #1
 8005452:	f81c 7004 	ldrb.w	r7, [ip, r4]
 8005456:	f017 0708 	ands.w	r7, r7, #8
 800545a:	d1f7      	bne.n	800544c <_strtol_l.constprop.0+0x20>
 800545c:	2c2d      	cmp	r4, #45	; 0x2d
 800545e:	d132      	bne.n	80054c6 <_strtol_l.constprop.0+0x9a>
 8005460:	782c      	ldrb	r4, [r5, #0]
 8005462:	2701      	movs	r7, #1
 8005464:	1cb5      	adds	r5, r6, #2
 8005466:	2b00      	cmp	r3, #0
 8005468:	d05b      	beq.n	8005522 <_strtol_l.constprop.0+0xf6>
 800546a:	2b10      	cmp	r3, #16
 800546c:	d109      	bne.n	8005482 <_strtol_l.constprop.0+0x56>
 800546e:	2c30      	cmp	r4, #48	; 0x30
 8005470:	d107      	bne.n	8005482 <_strtol_l.constprop.0+0x56>
 8005472:	782c      	ldrb	r4, [r5, #0]
 8005474:	f004 04df 	and.w	r4, r4, #223	; 0xdf
 8005478:	2c58      	cmp	r4, #88	; 0x58
 800547a:	d14d      	bne.n	8005518 <_strtol_l.constprop.0+0xec>
 800547c:	786c      	ldrb	r4, [r5, #1]
 800547e:	2310      	movs	r3, #16
 8005480:	3502      	adds	r5, #2
 8005482:	f107 4800 	add.w	r8, r7, #2147483648	; 0x80000000
 8005486:	f108 38ff 	add.w	r8, r8, #4294967295
 800548a:	f04f 0e00 	mov.w	lr, #0
 800548e:	fbb8 f9f3 	udiv	r9, r8, r3
 8005492:	4676      	mov	r6, lr
 8005494:	fb03 8a19 	mls	sl, r3, r9, r8
 8005498:	f1a4 0c30 	sub.w	ip, r4, #48	; 0x30
 800549c:	f1bc 0f09 	cmp.w	ip, #9
 80054a0:	d816      	bhi.n	80054d0 <_strtol_l.constprop.0+0xa4>
 80054a2:	4664      	mov	r4, ip
 80054a4:	42a3      	cmp	r3, r4
 80054a6:	dd24      	ble.n	80054f2 <_strtol_l.constprop.0+0xc6>
 80054a8:	f1be 3fff 	cmp.w	lr, #4294967295
 80054ac:	d008      	beq.n	80054c0 <_strtol_l.constprop.0+0x94>
 80054ae:	45b1      	cmp	r9, r6
 80054b0:	d31c      	bcc.n	80054ec <_strtol_l.constprop.0+0xc0>
 80054b2:	d101      	bne.n	80054b8 <_strtol_l.constprop.0+0x8c>
 80054b4:	45a2      	cmp	sl, r4
 80054b6:	db19      	blt.n	80054ec <_strtol_l.constprop.0+0xc0>
 80054b8:	fb06 4603 	mla	r6, r6, r3, r4
 80054bc:	f04f 0e01 	mov.w	lr, #1
 80054c0:	f815 4b01 	ldrb.w	r4, [r5], #1
 80054c4:	e7e8      	b.n	8005498 <_strtol_l.constprop.0+0x6c>
 80054c6:	2c2b      	cmp	r4, #43	; 0x2b
 80054c8:	bf04      	itt	eq
 80054ca:	782c      	ldrbeq	r4, [r5, #0]
 80054cc:	1cb5      	addeq	r5, r6, #2
 80054ce:	e7ca      	b.n	8005466 <_strtol_l.constprop.0+0x3a>
 80054d0:	f1a4 0c41 	sub.w	ip, r4, #65	; 0x41
 80054d4:	f1bc 0f19 	cmp.w	ip, #25
 80054d8:	d801      	bhi.n	80054de <_strtol_l.constprop.0+0xb2>
 80054da:	3c37      	subs	r4, #55	; 0x37
 80054dc:	e7e2      	b.n	80054a4 <_strtol_l.constprop.0+0x78>
 80054de:	f1a4 0c61 	sub.w	ip, r4, #97	; 0x61
 80054e2:	f1bc 0f19 	cmp.w	ip, #25
 80054e6:	d804      	bhi.n	80054f2 <_strtol_l.constprop.0+0xc6>
 80054e8:	3c57      	subs	r4, #87	; 0x57
 80054ea:	e7db      	b.n	80054a4 <_strtol_l.constprop.0+0x78>
 80054ec:	f04f 3eff 	mov.w	lr, #4294967295
 80054f0:	e7e6      	b.n	80054c0 <_strtol_l.constprop.0+0x94>
 80054f2:	f1be 3fff 	cmp.w	lr, #4294967295
 80054f6:	d105      	bne.n	8005504 <_strtol_l.constprop.0+0xd8>
 80054f8:	2322      	movs	r3, #34	; 0x22
 80054fa:	6003      	str	r3, [r0, #0]
 80054fc:	4646      	mov	r6, r8
 80054fe:	b942      	cbnz	r2, 8005512 <_strtol_l.constprop.0+0xe6>
 8005500:	4630      	mov	r0, r6
 8005502:	e79e      	b.n	8005442 <_strtol_l.constprop.0+0x16>
 8005504:	b107      	cbz	r7, 8005508 <_strtol_l.constprop.0+0xdc>
 8005506:	4276      	negs	r6, r6
 8005508:	2a00      	cmp	r2, #0
 800550a:	d0f9      	beq.n	8005500 <_strtol_l.constprop.0+0xd4>
 800550c:	f1be 0f00 	cmp.w	lr, #0
 8005510:	d000      	beq.n	8005514 <_strtol_l.constprop.0+0xe8>
 8005512:	1e69      	subs	r1, r5, #1
 8005514:	6011      	str	r1, [r2, #0]
 8005516:	e7f3      	b.n	8005500 <_strtol_l.constprop.0+0xd4>
 8005518:	2430      	movs	r4, #48	; 0x30
 800551a:	2b00      	cmp	r3, #0
 800551c:	d1b1      	bne.n	8005482 <_strtol_l.constprop.0+0x56>
 800551e:	2308      	movs	r3, #8
 8005520:	e7af      	b.n	8005482 <_strtol_l.constprop.0+0x56>
 8005522:	2c30      	cmp	r4, #48	; 0x30
 8005524:	d0a5      	beq.n	8005472 <_strtol_l.constprop.0+0x46>
 8005526:	230a      	movs	r3, #10
 8005528:	e7ab      	b.n	8005482 <_strtol_l.constprop.0+0x56>
 800552a:	bf00      	nop
 800552c:	08005950 	.word	0x08005950

08005530 <_strtol_r>:
 8005530:	f7ff bf7c 	b.w	800542c <_strtol_l.constprop.0>

08005534 <_strtoul_l.constprop.0>:
 8005534:	e92d 43f0 	stmdb	sp!, {r4, r5, r6, r7, r8, r9, lr}
 8005538:	4f36      	ldr	r7, [pc, #216]	; (8005614 <_strtoul_l.constprop.0+0xe0>)
 800553a:	4686      	mov	lr, r0
 800553c:	460d      	mov	r5, r1
 800553e:	4628      	mov	r0, r5
 8005540:	f815 4b01 	ldrb.w	r4, [r5], #1
 8005544:	5d3e      	ldrb	r6, [r7, r4]
 8005546:	f016 0608 	ands.w	r6, r6, #8
 800554a:	d1f8      	bne.n	800553e <_strtoul_l.constprop.0+0xa>
 800554c:	2c2d      	cmp	r4, #45	; 0x2d
 800554e:	d130      	bne.n	80055b2 <_strtoul_l.constprop.0+0x7e>
 8005550:	782c      	ldrb	r4, [r5, #0]
 8005552:	2601      	movs	r6, #1
 8005554:	1c85      	adds	r5, r0, #2
 8005556:	2b00      	cmp	r3, #0
 8005558:	d057      	beq.n	800560a <_strtoul_l.constprop.0+0xd6>
 800555a:	2b10      	cmp	r3, #16
 800555c:	d109      	bne.n	8005572 <_strtoul_l.constprop.0+0x3e>
 800555e:	2c30      	cmp	r4, #48	; 0x30
 8005560:	d107      	bne.n	8005572 <_strtoul_l.constprop.0+0x3e>
 8005562:	7828      	ldrb	r0, [r5, #0]
 8005564:	f000 00df 	and.w	r0, r0, #223	; 0xdf
 8005568:	2858      	cmp	r0, #88	; 0x58
 800556a:	d149      	bne.n	8005600 <_strtoul_l.constprop.0+0xcc>
 800556c:	786c      	ldrb	r4, [r5, #1]
 800556e:	2310      	movs	r3, #16
 8005570:	3502      	adds	r5, #2
 8005572:	f04f 38ff 	mov.w	r8, #4294967295
 8005576:	2700      	movs	r7, #0
 8005578:	fbb8 f8f3 	udiv	r8, r8, r3
 800557c:	fb03 f908 	mul.w	r9, r3, r8
 8005580:	ea6f 0909 	mvn.w	r9, r9
 8005584:	4638      	mov	r0, r7
 8005586:	f1a4 0c30 	sub.w	ip, r4, #48	; 0x30
 800558a:	f1bc 0f09 	cmp.w	ip, #9
 800558e:	d815      	bhi.n	80055bc <_strtoul_l.constprop.0+0x88>
 8005590:	4664      	mov	r4, ip
 8005592:	42a3      	cmp	r3, r4
 8005594:	dd23      	ble.n	80055de <_strtoul_l.constprop.0+0xaa>
 8005596:	f1b7 3fff 	cmp.w	r7, #4294967295
 800559a:	d007      	beq.n	80055ac <_strtoul_l.constprop.0+0x78>
 800559c:	4580      	cmp	r8, r0
 800559e:	d31b      	bcc.n	80055d8 <_strtoul_l.constprop.0+0xa4>
 80055a0:	d101      	bne.n	80055a6 <_strtoul_l.constprop.0+0x72>
 80055a2:	45a1      	cmp	r9, r4
 80055a4:	db18      	blt.n	80055d8 <_strtoul_l.constprop.0+0xa4>
 80055a6:	fb00 4003 	mla	r0, r0, r3, r4
 80055aa:	2701      	movs	r7, #1
 80055ac:	f815 4b01 	ldrb.w	r4, [r5], #1
 80055b0:	e7e9      	b.n	8005586 <_strtoul_l.constprop.0+0x52>
 80055b2:	2c2b      	cmp	r4, #43	; 0x2b
 80055b4:	bf04      	itt	eq
 80055b6:	782c      	ldrbeq	r4, [r5, #0]
 80055b8:	1c85      	addeq	r5, r0, #2
 80055ba:	e7cc      	b.n	8005556 <_strtoul_l.constprop.0+0x22>
 80055bc:	f1a4 0c41 	sub.w	ip, r4, #65	; 0x41
 80055c0:	f1bc 0f19 	cmp.w	ip, #25
 80055c4:	d801      	bhi.n	80055ca <_strtoul_l.constprop.0+0x96>
 80055c6:	3c37      	subs	r4, #55	; 0x37
 80055c8:	e7e3      	b.n	8005592 <_strtoul_l.constprop.0+0x5e>
 80055ca:	f1a4 0c61 	sub.w	ip, r4, #97	; 0x61
 80055ce:	f1bc 0f19 	cmp.w	ip, #25
 80055d2:	d804      	bhi.n	80055de <_strtoul_l.constprop.0+0xaa>
 80055d4:	3c57      	subs	r4, #87	; 0x57
 80055d6:	e7dc      	b.n	8005592 <_strtoul_l.constprop.0+0x5e>
 80055d8:	f04f 37ff 	mov.w	r7, #4294967295
 80055dc:	e7e6      	b.n	80055ac <_strtoul_l.constprop.0+0x78>
 80055de:	1c7b      	adds	r3, r7, #1
 80055e0:	d106      	bne.n	80055f0 <_strtoul_l.constprop.0+0xbc>
 80055e2:	2322      	movs	r3, #34	; 0x22
 80055e4:	f8ce 3000 	str.w	r3, [lr]
 80055e8:	4638      	mov	r0, r7
 80055ea:	b932      	cbnz	r2, 80055fa <_strtoul_l.constprop.0+0xc6>
 80055ec:	e8bd 83f0 	ldmia.w	sp!, {r4, r5, r6, r7, r8, r9, pc}
 80055f0:	b106      	cbz	r6, 80055f4 <_strtoul_l.constprop.0+0xc0>
 80055f2:	4240      	negs	r0, r0
 80055f4:	2a00      	cmp	r2, #0
 80055f6:	d0f9      	beq.n	80055ec <_strtoul_l.constprop.0+0xb8>
 80055f8:	b107      	cbz	r7, 80055fc <_strtoul_l.constprop.0+0xc8>
 80055fa:	1e69      	subs	r1, r5, #1
 80055fc:	6011      	str	r1, [r2, #0]
 80055fe:	e7f5      	b.n	80055ec <_strtoul_l.constprop.0+0xb8>
 8005600:	2430      	movs	r4, #48	; 0x30
 8005602:	2b00      	cmp	r3, #0
 8005604:	d1b5      	bne.n	8005572 <_strtoul_l.constprop.0+0x3e>
 8005606:	2308      	movs	r3, #8
 8005608:	e7b3      	b.n	8005572 <_strtoul_l.constprop.0+0x3e>
 800560a:	2c30      	cmp	r4, #48	; 0x30
 800560c:	d0a9      	beq.n	8005562 <_strtoul_l.constprop.0+0x2e>
 800560e:	230a      	movs	r3, #10
 8005610:	e7af      	b.n	8005572 <_strtoul_l.constprop.0+0x3e>
 8005612:	bf00      	nop
 8005614:	08005950 	.word	0x08005950

08005618 <_strtoul_r>:
 8005618:	f7ff bf8c 	b.w	8005534 <_strtoul_l.constprop.0>

0800561c <_malloc_usable_size_r>:
 800561c:	f851 3c04 	ldr.w	r3, [r1, #-4]
 8005620:	1f18      	subs	r0, r3, #4
 8005622:	2b00      	cmp	r3, #0
 8005624:	bfbc      	itt	lt
 8005626:	580b      	ldrlt	r3, [r1, r0]
 8005628:	18c0      	addlt	r0, r0, r3
 800562a:	4770      	bx	lr

0800562c <_init>:
 800562c:	b5f8      	push	{r3, r4, r5, r6, r7, lr}
 800562e:	bf00      	nop
 8005630:	bcf8      	pop	{r3, r4, r5, r6, r7}
 8005632:	bc08      	pop	{r3}
 8005634:	469e      	mov	lr, r3
 8005636:	4770      	bx	lr

08005638 <_fini>:
 8005638:	b5f8      	push	{r3, r4, r5, r6, r7, lr}
 800563a:	bf00      	nop
 800563c:	bcf8      	pop	{r3, r4, r5, r6, r7}
 800563e:	bc08      	pop	{r3}
 8005640:	469e      	mov	lr, r3
 8005642:	4770      	bx	lr
